(dp1
V\u8604
(lp2
V\u8572
asV\u6d89
(lp3
V\u6e09
asV\uf991
(lp4
V\u649a
asV\u9810
(lp5
V\u8c6b
aV\u9884
asV\u3c93
(lp6
V\u6be7
asV\u6d1e
(lp7
V\u5cd2
asV\u91a1
(lp8
V\u69a8
asV\u5aa7
(lp9
V\u5a32
asV\u7926
(lp10
V\u945b
aV\u77ff
asV\u9da9
(lp11
V\u9e5c
asV\u60ab
(lp12
V\u6164
asV\u9136
(lp13
V\u90d0
asV\u5438
(lp14
V\u564f
asV\u7ebf
(lp15
V\u7dda
asV\u6644
(lp16
V\u6643
asV\u8ac7
(lp17
V\u8b5a
aV\u8c08
asV\u7e54
(lp18
V\u7ec7
asV\uf958
(lp19
V\u83f1
asV\u9060
(lp20
V\u8fdc
aV\u903a
asV\u7de9
(lp21
V\u7f13
asV\u9c68
(lp22
V\u9cbf
asV\U000289f1
(lp23
V\U00028c4a
asV\u6b72
(lp24
V\u5c81
aV\u4e97
asV\u58fb
(lp25
V\u5a7f
asV\u9bfd
(lp26
V\u9cab
asV\u5eff
(lp27
V\u5344
aV\u5efe
asV\u4080
(lp28
V\U000252df
asV\u6403
(lp29
V\u7e3d
asV\u8986
(lp30
V\u590d
aV\u5fa9
asV\u700b
(lp31
V\u6c88
asV\u528c
(lp32
V\u523f
asV\u958e
(lp33
V\u95f3
asV\u9b92
(lp34
V\u9c8b
asV\u8217
(lp35
V\u92ea
asV\u6498
(lp36
V\u642d
asV\u4b1d
(lp37
V\U0002966f
asV\u6a9c
(lp38
V\u6867
aV\u681d
asV\u9a27
(lp39
V\u4bc4
asV\U0002a62f
(lp40
V\U0002a690
asV\u6f35
(lp41
V\u6e86
asV\u8141
(lp42
V\u80fc
asV\u934d
(lp43
V\u9540
asV\u564f
(lp44
V\u5438
asV\u9951
(lp45
V\u98e2
asV\u5c53
(lp46
V\u5c43
asV\u9f55
(lp47
V\u9f81
asV\u87da
(lp48
V\u87db
asV\u6e5f
(lp49
V\u6cc1
asV\u7463
(lp50
V\u7410
asV\u93e2
(lp51
V\u9463
aV\u9556
asV\u56e4
(lp52
V\U00025af1
asV\u99e6
(lp53
V\u9a30
asV\u5ce8
(lp54
V\u5ce9
aV\u5ce9
asV\u806b
(lp55
V\u806f
asV\uf926
(lp56
V\u81d8
asV\u866f
(lp57
V\u866c
aV\u866c
asV\u4971
(lp58
V\u497e
asV\u68f0
(lp59
V\u69cc
asV\u4f75
(lp60
V\U000202a7
aV\u5e76
aV\u5002
asV\u987b
(lp61
V\u9808
asV\u5b7d
(lp62
V\u5b7c
aV\u5b7c
asV\u9e7f
(lp63
V\uf940
asV\u6081
(lp64
V\u61c1
asV\u6c89
(lp65
V\u6c88
aV\u700b
asV\u8d08
(lp66
V\u8d60
asV\u4e0a
(lp67
V\u4e04
asV\u540e
(lp68
V\u540e
asV\u9910
(lp69
V\u98e1
asV\u8499
(lp70
V\u61de
asV\u499b
(lp71
V\u49b6
asV\u661a
(lp72
V\u613c
asV\U000296a5
(lp73
V\U00029800
asV\u7826
(lp74
V\u5be8
asV\u61ab
(lp75
V\u610d
aV\u60af
asV\uf9bb
(lp76
V\u50da
asV\U0002963a
(lp77
V\U0002966c
asV\u9c3e
(lp78
V\u9cd4
asV\u91cb
(lp79
V\u91ca
asV\u7950
(lp80
V\u4f51
asV\u9dd3
(lp81
V\u9e67
asV\u5ed5
(lp82
V\u852d
asV\u7f54
(lp83
V\u7f51
asV\u8558
(lp84
V\u835b
asV\u6add
(lp85
V\u5335
aV\u691f
asV\u8b5c
(lp86
V\u8c31
asV\u646e
(lp87
V\U00022cc6
asV\u53f7
(lp88
V\u865f
asV\u7076
(lp89
V\u7ac8
asV\u59fb
(lp90
V\u5a63
aV\u5a63
asV\u767a
(lp91
V\u767c
asV\u8e8a
(lp92
V\u8e0c
asV\u7d13
(lp93
V\u7ebe
asV\u8f1f
(lp94
V\u8f8d
asV\u77a4
(lp95
V\U000251a7
asV\u9b27
(lp96
V\u9599
aV\u95f9
asV\u5c29
(lp97
V\u344c
asV\u89b0
(lp98
V\u89b7
asV\u7a3d
(lp99
V\u4e69
asV\u62c2
(lp100
V\u6255
asV\u924d
(lp101
V\u94cb
asV\U00028123
(lp102
V\U00028031
asV\u574f
(lp103
V\u576f
asV\u7ad2
(lp104
V\u5947
aV\u5947
asV\u8cde
(lp105
V\u8d4f
asV\u7b67
(lp106
V\u7b15
asV\u98e6
(lp107
V\u9958
asV\u5de8
(lp108
V\u9245
asV\u816b
(lp109
V\u5c30
aV\u80bf
asV\u8200
(lp110
V\u628c
asV\u6585
(lp111
V\u6586
aV\U00022f7e
aV\u6586
asV\u570e
(lp112
V\u5713
asV\u9a10
(lp113
V\u9a57
asV\u8799
(lp114
V\u8827
asV\u93a1
(lp115
V\u9543
asV\u95a5
(lp116
V\u9600
asV\u6eb3
(lp117
V\u6da2
aV\u6da2
asV\u8932
(lp118
V\u88e4
aV\u7daf
asV\u9336
(lp119
V\u8868
asV\u5638
(lp120
V\u5452
asV\U00022b46
(lp121
V\u62bd
asV\u51cd
(lp122
V\u51bb
asV\u704c
(lp123
V\u6f45
asV\u7a50
(lp124
V\u79cb
asV\u7c54
(lp125
V\u4264
aV\u85ea
asV\u4f5e
(lp126
V\u4fab
asV\u5afb
(lp127
V\u5afa
aV\u5a34
asV\u757a
(lp128
V\u7586
asV\u6807
(lp129
V\u6a81
asV\u8b86
(lp130
V\u8b8f
asV\u4e88
(lp131
V\u4f59
aV\u8c6b
asV\u720b
(lp132
V\U00024455
asV\u508c
(lp133
V\u7f75
asV\u8017
(lp134
V\u79cf
aV\u79cf
asV\u6698
(lp135
V\u65f8
asV\u8a1b
(lp136
V\u8b4c
aV\u8bb9
aV\u8b4c
asV\u72a0
(lp137
V\u72a7
asV\u80ac
(lp138
V\u75a3
asV\u8ab0
(lp139
V\u8c01
asV\u8cb4
(lp140
V\u8d35
asV\u53b6
(lp141
V\u67d0
aV\u79c1
asV\u96b8
(lp142
V\u96b7
aV\u96b6
aV\u96b7
asV\uf93d
(lp143
V\u7da0
asV\u98bc
(lp144
V\u4b12
aV\u98d5
asV\u6bc6
(lp145
V\u6bb4
asV\u8f49
(lp146
V\u8f6c
aV\u8ee2
asV\u524b
(lp147
V\u5c05
aV\u514b
asV\uf9d2
(lp148
V\u622e
asV\u6a5b
(lp149
V\u6a5c
asV\u826b
(lp150
V\u823b
aV\u6ad3
asV\u846f
(lp151
V\u85e5
asV\u9077
(lp152
V\u8fc1
aV\u8fc1
asV\u6485
(lp153
V\u6398
asV\u6e89
(lp154
V\u6461
aV\u6f11
asV\u8f08
(lp155
V\u8f80
asV\u560e
(lp156
V\u5c1c
asV\ufa26
(lp157
V\u90fd
asV\u9ea9
(lp158
V\u9eb8
asV\u4d34
(lp159
V\U0002a38b
asV\u943a
(lp160
V\u94db
asV\u7dbf
(lp161
V\u7ddc
aV\u7ef5
asV\u50cd
(lp162
V\u4ec2
asV\U0002364e
(lp163
V\u3b63
asV\u7b50
(lp164
V\u7b7a
asV\u895c
(lp165
V\u895d
asV\u9360
(lp166
V\u953d
asV\u5a66
(lp167
V\u5a8d
aV\u5987
asV\u80ed
(lp168
V\u81d9
aV\u81d9
asV\u8af1
(lp169
V\u8bb3
asV\u8cf5
(lp170
V\u8d57
asV\u51f7
(lp171
V\u584a
asV\u98fd
(lp172
V\u9971
asV\u7e7e
(lp173
V\u7f31
asV\u6703
(lp174
V\u4f1a
aV\u4f1a
asV\u8a86
(lp175
V\u8bd3
asV\u8c8a
(lp176
V\u8c98
asV\u968e
(lp177
V\u5826
aV\u9636
asV\u5b90
(lp178
V\u5b9c
asV\u5d94
(lp179
V\u5d5a
aV\u5d1f
asV\u8b1b
(lp180
V\u8bb2
asV\u7fa8
(lp181
V\u7fa1
asV\u6c35
(lp182
V\u6c34
asV\u5ebe
(lp183
V\u659e
asV\u4947
(lp184
V\u4982
asV\u534b
(lp185
V\u4e16
asV\u6cca
(lp186
V\u6cfa
asV\u904d
(lp187
V\u5fa7
aV\u5fa7
asV\u554f
(lp188
V\u95ee
asV\u5f53
(lp189
V\u7576
asV\u78d2
(lp190
V\u9695
asV\u6b5b
(lp191
V\u6582
asV\uf967
(lp192
V\u4e0d
asV\u9ae6
(lp193
V\u729b
asV\uf9a6
(lp194
V\u7c3e
asV\u5679
(lp195
V\u5f53
asV\uf9fc
(lp196
V\u8b58
asV\u6581
(lp197
V\U00024895
asV\u8204
(lp198
V\u8203
asV\u778d
(lp199
V\U0002521f
asV\u510e
(lp200
V\u50a4
asV\u7d91
(lp201
V\u6346
aV\u6346
asV\u9c10
(lp202
V\u9c77
asV\u5f12
(lp203
V\u5f11
asV\u9a14
(lp204
V\U00029a00
asV\u6516
(lp205
V\u6484
asV\u95a1
(lp206
V\u9602
asV\u5ea7
(lp207
V\u5750
asV\u99a9
(lp208
V\u999a
asV\u64ab
(lp209
V\u636c
aV\u629a
aV\u62ca
asV\u76b7
(lp210
V\u9f13
asV\u993e
(lp211
V\u998f
asV\U0002990a
(lp212
V\U000299e9
asV\u92cf
(lp213
V\u94d7
asV\u7c50
(lp214
V\u85e4
aV\u7c58
asV\u5bd5
(lp215
V\u5bdc
aV\u5be7
asV\u9460
(lp216
V\u94c4
asV\U00025762
(lp217
V\u5229
asV\u9264
(lp218
V\u920e
aV\u94a9
aV\u920e
asV\uf9e9
(lp219
V\u91cc
asV\u616e
(lp220
V\u8651
asV\u7576
(lp221
V\u5f53
asV\u91f9
(lp222
V\u9495
asV\u737a
(lp223
V\u736d
asV\u5aff
(lp224
V\u5a73
asV\uf97e
(lp225
V\u91cf
asV\u8782
(lp226
V\u870b
asV\u6e07
(lp227
V\u6e34
asV\u8b8a
(lp228
V\u53d8
asV\u568c
(lp229
V\u54dc
asV\u3d11
(lp230
V\u6eaf
asV\u5c90
(lp231
V\u6b67
asV\u9f92
(lp232
V\u9f8d
asV\u8617
(lp233
V\u6a98
asV\u4f1d
(lp234
V\u50b3
asV\u6e9c
(lp235
V\uf9cb
asV\u8a1f
(lp236
V\u8bbc
asV\u9023
(lp237
V\u8fde
aV\uf99a
asV\u5929
(lp238
V\u975d
asV\u672d
(lp239
V\u7b9a
asV\u8cb0
(lp240
V\u8d33
asV\U00022833
(lp241
V\u618b
asV\u6b35
(lp242
V\u6b3e
asV\u55b6
(lp243
V\u71df
asV\u7f3d
(lp244
V\u9262
aV\u94b5
asV\u9ebc
(lp245
V\u4e48
aV\u9ebd
asV\u8541
(lp246
V\u8368
asV\u67c2
(lp247
V\u675d
asV\u8345
(lp248
V\u7b54
aV\u7b54
asV\u4e47
(lp249
V\u8650
asV\u6dc6
(lp250
V\u6bbd
asV\u8949
(lp251
V\u88e5
asV\u524f
(lp252
V\u5231
asV\u71ce
(lp253
V\uf9c0
asV\u9d51
(lp254
V\u9e43
asV\u7fd2
(lp255
V\u4e60
asV\u40d8
(lp256
V\u785c
asV\u6a5f
(lp257
V\u673a
aV\u673a
asV\U00029951
(lp258
V\U00029a0c
asV\u7063
(lp259
V\u6e7e
asV\u52e4
(lp260
V\u61c3
asV\u9de6
(lp261
V\u9e6a
asV\u846b
(lp262
V\u80e1
asV\u9bea
(lp263
V\u9cae
asV\u66ec
(lp264
V\u6652
aV\u6652
asV\u826f
(lp265
V\uf97c
asV\u9677
(lp266
V\u9665
asV\u9c7b
(lp267
V\u9bae
asV\u5e12
(lp268
V\u888b
asV\u6416
(lp269
V\u6447
aV\u6447
aV\u63fa
asV\u8e9d
(lp270
V\U0002816c
asV\u92a5
(lp271
V\u94f1
asV\u5fa7
(lp272
V\u904d
aV\u904d
asV\ufa2a
(lp273
V\u98ef
asV\u802e
(lp274
V\u8022
asV\u77b7
(lp275
V\u77af
asV\u9436
(lp276
V\u9370
aV\u956e
asV\u5138
(lp277
V\u3469
asV\u7dbb
(lp278
V\u463a
aV\u7efd
asV\u923a
(lp279
V\u94b0
asV\U00029834
(lp280
V\U00029820
asV\u8fc7
(lp281
V\u904e
asV\u95cb
(lp282
V\u9615
asV\u7d50
(lp283
V\u7ed3
asV\u5ad5
(lp284
V\u5adb
asV\u7b54
(lp285
V\u8345
aV\u8345
asV\u8158
(lp286
V\u8195
asV\u9364
(lp287
V\u9538
asV\u3fe7
(lp288
V\U00024f6f
asV\u8af5
(lp289
V\u5583
asV\u57f7
(lp290
V\u6267
aV\u6267
asV\u5dfb
(lp291
V\u6372
asV\u9efd
(lp292
V\u9efe
asV\U00029fea
(lp293
V\U0002a244
asV\u6f07
(lp294
V\U00022cdc
asV\uf913
(lp295
V\u908f
asV\u8d1b
(lp296
V\u8d63
asV\U00028b1f
(lp297
V\U00028b15
asV\U00021123
(lp298
V\U00020d78
asV\u5225
(lp299
V\u522b
asV\uf9a8
(lp300
V\u4ee4
asV\u4eb2
(lp301
V\u699b
asV\u3737
(lp302
V\U00021760
asV\u7e3d
(lp303
V\u603b
aV\u7dcf
asV\u58be
(lp304
V\u57a6
asV\u8441
(lp305
V\u8591
asV\u4f47
(lp306
V\u7ada
aV\u4f2b
asV\u964d
(lp307
V\u5905
aV\ufa09
asV\u9c51
(lp308
V\u9c09
asV\u9a55
(lp309
V\u9a84
asV\u84d6
(lp310
V\u8406
aV\u8298
asV\u6b5f
(lp311
V\u6b24
asV\u96e2
(lp312
V\u79bb
aV\uf9ea
asV\u9aea
(lp313
V\u9aee
asV\u5079
(lp314
V\u5099
asV\u9d7b
(lp315
V\u96bc
asV\u5e7d
(lp316
V\u51fc
asV\u6781
(lp317
V\u6781
aV\u6975
asV\u8600
(lp318
V\u841a
asV\u6185
(lp319
V\u615f
asV\u8a08
(lp320
V\u8ba1
asV\u758d
(lp321
V\u86cb
asV\u5d12
(lp322
V\u5d2a
asV\u7995
(lp323
V\u794e
asV\u6716
(lp324
V\u6717
asV\u6b1e
(lp325
V\u6afa
aV\u68c2
asV\u52a3
(lp326
V\uf99d
asV\u7522
(lp327
V\u4ea7
asV\u3a28
(lp328
V\u3a45
asV\u66ab
(lp329
V\u6682
asV\u792a
(lp330
V\u783a
aV\uf985
asV\u6ab3
(lp331
V\u69df
aV\u68b9
asV\u9736
(lp332
V\u96f1
asV\u913a
(lp333
V\u909d
asV\u8cc7
(lp334
V\u8d44
asV\u6a48
(lp335
V\u6861
asV\u96cb
(lp336
V\u96bd
aV\u96bd
asV\u9ad3
(lp337
V\u81b8
asV\u3d52
(lp338
V\u6cb8
asV\U00026ddd
(lp339
V\u82bb
asV\u8c5c
(lp340
V\u8c63
aV\u8c63
asV\u5562
(lp341
V\u5521
asV\u7be9
(lp342
V\u7b5b
asV\u596a
(lp343
V\u593a
asV\u89f5
(lp344
V\u89e5
asV\u93f9
(lp345
V\u956a
asV\u5efb
(lp346
V\u56de
asV\u9dfd
(lp347
V\u9e34
asV\u7b7e
(lp348
V\u7c64
asV\u760b
(lp349
V\u75af
asV\u898a
(lp350
V\u7f88
aV\u7f88
asV\u350d
(lp351
V\u4977
asV\u548c
(lp352
V\u9fa2
asV\u700f
(lp353
V\u6d4f
asV\u9d92
(lp354
V\U0002b6f6
asV\u881f
(lp355
V\u8721
aV\u8721
asV\u9223
(lp356
V\u9499
asV\u70a4
(lp357
V\u7167
aV\u7167
asV\u9c27
(lp358
V\u4ca2
asV\u6f31
(lp359
V\u6f44
asV\u8eb0
(lp360
V\u9ad4
asV\u88b4
(lp361
V\u8932
asV\u65c2
(lp362
V\u65d7
asV\u4c47
(lp363
V\u9c53
asV\u6fc6
(lp364
V\U00023e23
asV\u8b49
(lp365
V\u8a3c
aV\u8bc1
asV\u69ca
(lp366
V\u9399
asV\U000234cc
(lp367
V\u69f9
asV\u73ce
(lp368
V\u73cd
aV\u73cd
asV\u7dd2
(lp369
V\u7eea
aV\u7dd6
asV\u9955
(lp370
V\u53e8
asV\u81da
(lp371
V\u80ea
asV\u685f
(lp372
V\u68e7
asV\u866b
(lp373
V\u87f2
asV\u64ec
(lp374
V\u62df
aV\u5117
asV\u806f
(lp375
V\u8054
aV\u8068
asV\u8a73
(lp376
V\u8be6
asV\u9477
(lp377
V\u954a
asV\u5379
(lp378
V\u6064
aV\u6064
asV\u72f8
(lp379
V\u8c8d
asV\u6681
(lp380
V\u66c9
asV\u6085
(lp381
V\u60a6
aV\u60a6
asV\u6a89
(lp382
V\u67f3
aV\u67fd
asV\u5c12
(lp383
V\u723e
asV\u7895
(lp384
V\u5d0e
asV\u9914
(lp385
V\U0002b5e6
asV\u8c9d
(lp386
V\u8d1d
asV\u499f
(lp387
V\u49b7
asV\u6a1e
(lp388
V\u67a2
asV\U00027422
(lp389
V\u8814
asV\u5da7
(lp390
V\u5cc4
asV\u7e26
(lp391
V\u7e31
asV\u61af
(lp392
V\u39a7
asV\u822e
(lp393
V\u6ad3
asV\u6bb3
(lp394
V\u6778
asV\u903a
(lp395
V\u9060
asV\u79bf
(lp396
V\u79c3
aV\u79c3
asV\u9a3e
(lp397
V\u9a58
aV\u9aa1
asV\u6144
(lp398
V\u6817
aV\uf9d9
asV\u97cb
(lp399
V\u97e6
asV\u54cd
(lp400
V\u97ff
asV\u754c
(lp401
V\u754d
asV\u91cf
(lp402
V\uf97e
asV\u5ed1
(lp403
V\u53aa
asV\u7f50
(lp404
V\u7936
aV\u7f36
asV\uf954
(lp405
V\u51dc
asV\u8358
(lp406
V\u838a
asV\u6cdd
(lp407
V\u9061
aV\u6eaf
asV\u4a5e
(lp408
V\u97c2
asV\u76e1
(lp409
V\u5c3d
aV\u5c3d
asV\u9b68
(lp410
V\u9c80
asV\u88f5
(lp411
V\u88f4
asV\u5ffb
(lp412
V\u6b23
aV\u6b23
asV\u7b13
(lp413
V\u7be6
asV\u6398
(lp414
V\u6485
asV\u8f1b
(lp415
V\u8f86
aV\u8f0c
asV\u6d9c
(lp416
V\u7006
asV\u891f
(lp417
V\u6ebb
asV\u77a0
(lp418
V\u77aa
asV\u5a29
(lp419
V\u3743
asV\U0002272b
(lp420
V\u60fa
asV\u642d
(lp421
V\u6498
aV\u6428
asV\u85ac
(lp422
V\u85e5
asV\u8fb0
(lp423
V\uf971
asV\u56b6
(lp424
V\u5624
asV\u7c3d
(lp425
V\u7b7e
asV\u9dbc
(lp426
V\u9e63
asV\u574b
(lp427
V\u574c
asV\u68ca
(lp428
V\u68cb
asV\u9855
(lp429
V\u986f
aV\u986f
asV\u6557
(lp430
V\u4899
aV\u8d25
asV\u6f5b
(lp431
V\u6f5c
aV\u6f5c
asV\u80da
(lp432
V\u80a7
asV\u8ade
(lp433
V\u8c1d
asV\u7363
(lp434
V\u7378
asV\uf950
(lp435
V\u7e37
asV\u5be8
(lp436
V\u7826
asV\u98ea
(lp437
V\u43d5
aV\u996a
aV\u9901
asV\u4e71
(lp438
V\u4e82
asV\u6ff0
(lp439
V\u6f4d
asV\u9577
(lp440
V\u957f
asV\u7dfc
(lp441
V\u7e15
asV\u6f85
(lp442
V\U00023da9
asV\u6589
(lp443
V\u9f4a
aV\u9f4a
asV\u470a
(lp444
V\u5608
asV\u7b8d
(lp445
V\u7b9b
asV\u9a0c
(lp446
V\u9a23
aV\u9a94
aV\u9b03
asV\u3e8f
(lp447
V\U0002480b
asV\u5d0e
(lp448
V\u57fc
asV\u3493
(lp449
V\U00020242
asV\u4a97
(lp450
V\U00029400
asV\u8d99
(lp451
V\u8d75
asV\u6f1a
(lp452
V\u6ca4
asV\u9fa5
(lp453
V\u7c72
asV\u7126
(lp454
V\u7133
asV\u95a9
(lp455
V\u95fd
asV\u6eaf
(lp456
V\u9061
aV\u6cdd
asV\u64b3
(lp457
V\u6407
aV\u63ff
asV\u8332
(lp458
V\u5179
aV\u7386
asV\u9936
(lp459
V\u9989
asV\u5c38
(lp460
V\u5c4d
asV\u523c
(lp461
V\u52ab
aV\u52ab
asV\u8cc3
(lp462
V\u8d41
asV\u5bcd
(lp463
V\u5be7
asV\u7a4c
(lp464
V\u7526
aV\u7a23
asV\u9ecf
(lp465
V\u7c98
asV\u51d1
(lp466
V\u6e4a
asV\U000282b8
(lp467
V\u4881
asV\u8c58
(lp468
V\u8c5a
asV\uf90e
(lp469
V\u7669
asV\u63dd
(lp470
V\u648d
asV\u825c
(lp471
V\u8226
asV\uf9e1
(lp472
V\u674e
asV\u7fe5
(lp473
V\u4b21
asV\u5166
(lp474
V\u4ea1
aV\u4ea1
asV\u75e9
(lp475
V\u7626
asV\u6372
(lp476
V\u5377
asV\uf976
(lp477
V\u7565
asV\u9df9
(lp478
V\u9e70
asV\u93fd
(lp479
V\u92b9
aV\u9508
aV\u92b9
asV\U00028b82
(lp480
V\U00028c55
asV\u6207
(lp481
V\u6206
asV\u8186
(lp482
V\u55c9
asV\u9392
(lp483
V\u8028
asV\u5694
(lp484
V\u568f
asV\u8a17
(lp485
V\u4f82
aV\u8bac
asV\u431d
(lp486
V\U0002621f
asV\u629c
(lp487
V\u62d4
asV\u9c23
(lp488
V\u9ca5
asV\u7ea4
(lp489
V\u7e34
asV\u9227
(lp490
V\u94aa
asV\u8aac
(lp491
V\u8aaa
asV\u6735
(lp492
V\u6736
aV\u6736
asV\u7d39
(lp493
V\u4f4b
aV\u7ecd
asV\u5fba
(lp494
V\u50e5
asV\u92bc
(lp495
V\u9509
asV\uf9ca
(lp496
V\u6d41
asV\u8f45
(lp497
V\u8f95
asV\u584b
(lp498
V\u8314
asV\u58e0
(lp499
V\u5785
asV\u9be2
(lp500
V\u9cb5
asV\u6aec
(lp501
V\u6987
asV\U00022dee
(lp502
V\U00022aca
asV\u66f4
(lp503
V\u3a85
aV\uf901
asV\u7cf8
(lp504
V\u7cf9
aV\u7d72
asV\u537d
(lp505
V\u5373
aV\u5373
asV\u72fc
(lp506
V\uf92b
asV\u6881
(lp507
V\u6a11
aV\uf97a
asV\u8f04
(lp508
V\U00028408
asV\u5c0e
(lp509
V\u5bfc
asV\u6816
(lp510
V\u68f2
asV\u8c99
(lp511
V\u4759
asV\u6e1a
(lp512
V\u967c
asV\u641e
(lp513
V\u652a
asV\U000298a1
(lp514
V\U000299ec
asV\ufa22
(lp515
V\u8af8
asV\u9ea5
(lp516
V\u9ea6
asV\u7026
(lp517
V\u6f74
asV\u94a9
(lp518
V\u9264
asV\u77bf
(lp519
V\u4020
asV\u83c7
(lp520
V\u83f0
aV\u82fd
asV\u6548
(lp521
V\u52b9
aV\u52b9
asV\u50d1
(lp522
V\u4fa8
asV\u95d3
(lp523
V\u95ff
asV\u6cd9
(lp524
V\u6d34
asV\u4e5a
(lp525
V\u96b1
asV\u62dd
(lp526
V\u62dc
asV\u78e1
(lp527
V\u5888
asV\U0002098c
(lp528
V\u534c
asV\u566a
(lp529
V\u8b5f
asV\u8aed
(lp530
V\u8c15
asV\u4fef
(lp531
V\u982b
asV\u4f84
(lp532
V\u59ea
asV\u8086
(lp533
V\u56db
aV\u56db
asV\u4588
(lp534
V\u8650
asV\uf90b
(lp535
V\u5587
asV\u868a
(lp536
V\u87c1
aV\u87a1
asV\u5190
(lp537
V\u5192
asV\u8b17
(lp538
V\u8c24
asV\u811b
(lp539
V\u80eb
asV\uf9a0
(lp540
V\u88c2
asV\u9d23
(lp541
V\u9e2a
asV\u5e25
(lp542
V\u5e05
asV\u7fa4
(lp543
V\u7fa3
aV\u7fa3
asV\u6635
(lp544
V\u66b1
asV\u7c39
(lp545
V\u7b5c
asV\u6ac2
(lp546
V\u68f9
aV\u68f9
asV\u8449
(lp547
V\u53f6
aV\uf96e
asV\u9a4d
(lp548
V\u9a81
asV\u9051
(lp549
V\u5fa8
asV\u5553
(lp550
V\u555f
aV\u555f
asV\u6b57
(lp551
V\u562f
asV\u7367
(lp552
V\u72f7
asV\u6bec
(lp553
V\u7403
asV\u67f4
(lp554
V\u8308
asV\u9b77
(lp555
V\u9c0c
aV\u9c7f
asV\u38f6
(lp556
V\u9085
asV\u7df8
(lp557
V\U00026211
asV\u6b81
(lp558
V\u6b7f
asV\u8a00
(lp559
V\u8a01
asV\u6d85
(lp560
V\u6e7c
asV\u798d
(lp561
V\u7978
asV\u980c
(lp562
V\u9882
asV\u9210
(lp563
V\u94a4
asV\u5112
(lp564
V\u3435
asV\u9414
(lp565
V\u9561
asV\u6b16
(lp566
V\u6984
asV\u6d1a
(lp567
V\u6d2a
asV\u671e
(lp568
V\u7a18
aV\u671f
asV\uf922
(lp569
V\u6feb
asV\u9da5
(lp570
V\u9e5b
asV\u752a
(lp571
V\u89d2
asV\u8f2e
(lp572
V\U0002b413
asV\u8132
(lp573
V\u5c3f
asV\u9d3a
(lp574
V\u9d5c
asV\u503c
(lp575
V\u5024
aV\u5024
asV\u74bf
(lp576
V\u7487
asV\U00026c44
(lp577
V\u83c7
asV\u59cd
(lp578
V\u59d7
aV\u59d7
asV\u53d1
(lp579
V\u767c
asV\uf93b
(lp580
V\u788c
asV\u7be1
(lp581
V\u7c12
aV\u7c12
asV\u7de5
(lp582
V\u8913
asV\u9c64
(lp583
V\u9ce1
asV\u77e9
(lp584
V\u6998
asV\u83f1
(lp585
V\uf958
asV\u58f7
(lp586
V\u58fa
asV\u52fb
(lp587
V\u5300
aV\u5300
asV\u7d7a
(lp588
V\U0002b128
asV\u777e
(lp589
V\u768b
asV\U00026007
(lp590
V\u7d93
asV\u8386
(lp591
V\u84b2
asV\ufa0b
(lp592
V\u5ed3
asV\u858a
(lp593
V\u84df
asV\u9f8e
(lp594
V\u9f90
aV\u5390
aV\u9f90
asV\u7613
(lp595
V\u75ea
asV\u4f19
(lp596
V\u5925
asV\u5b21
(lp597
V\u5ad2
asV\u7ca4
(lp598
V\u7cb5
asV\u4fae
(lp599
V\u3444
asV\u6331
(lp600
V\u6332
asV\U000282b0
(lp601
V\u4880
asV\u6535
(lp602
V\u6534
aV\u590a
asV\u5bb6
(lp603
V\u50a2
asV\u5dba
(lp604
V\u5cad
aV\uf9ab
asV\u8b41
(lp605
V\u5629
aV\u54d7
asV\u4e43
(lp606
V\u5efc
asV\u994d
(lp607
V\u81b3
asV\u5c4f
(lp608
V\u6452
asV\u5653
(lp609
V\u5618
asV\u71d2
(lp610
V\u7c2b
aV\u70e7
asV\u625b
(lp611
V\u6443
asV\u645f
(lp612
V\u6402
asV\u99e2
(lp613
V\u9a08
aV\u9a88
aV\u9a08
asV\u7067
(lp614
V\u6edf
aV\u7054
asV\u93e6
(lp615
V\U0002b4e9
asV\u8a6b
(lp616
V\u8be7
asV\u64f4
(lp617
V\u6269
asV\u3bf6
(lp618
V\u68d5
asV\u927b
(lp619
V\u94ec
asV\u947f
(lp620
V\u51ff
asV\u6a81
(lp621
V\u6807
aV\u6aa9
asV\u8b00
(lp622
V\u8c0b
asV\u6c85
(lp623
V\u6e90
asV\u8d04
(lp624
V\u8d3d
asV\u6689
(lp625
V\u6656
asV\u990c
(lp626
V\u9975
asV\u9310
(lp627
V\u9525
asV\u439b
(lp628
V\u3588
asV\u459f
(lp629
V\u8771
asV\u96a9
(lp630
V\U00021483
asV\u6bab
(lp631
V\u6b9a
asV\u4330
(lp632
V\U00026219
asV\uf9b7
(lp633
V\u91b4
asV\u9a36
(lp634
V\u9a7a
asV\u9c3a
(lp635
V\u9cb9
asV\u513c
(lp636
V\u4fe8
asV\u6d44
(lp637
V\u6de8
asV\u81c7
(lp638
V\U000243b1
asV\u9bcb
(lp639
V\u9bca
asV\u58cd
(lp640
V\u5879
asV\uf94c
(lp641
V\u6a13
asV\u9dcf
(lp642
V\u9dc6
asV\u7350
(lp643
V\u9e9e
asV\u97d3
(lp644
V\u97e9
asV\u6ed9
(lp645
V\u532f
asV\uf98e
(lp646
V\u5e74
asV\u60dd
(lp647
V\U00022835
asV\u5862
(lp648
V\u575e
asV\u5266
(lp649
V\u95b9
asV\u76e9
(lp650
V\u76ed
asV\u9768
(lp651
V\u9765
asV\u546a
(lp652
V\u5492
asV\u90fd
(lp653
V\ufa26
asV\u767e
(lp654
V\u4f70
aV\u4f70
asV\u4788
(lp655
V\U00027e51
asV\u7b0b
(lp656
V\u7b4d
asV\u5390
(lp657
V\u9f90
asV\u7ba0
(lp658
V\u6376
asV\uf9f8
(lp659
V\u7b20
asV\u5c25
(lp660
V\u5c26
asV\u9127
(lp661
V\u9093
asV\u5629
(lp662
V\u8b41
aV\u54d7
aV\u8b41
asV\u89ac
(lp663
V\u89ca
asV\u4eae
(lp664
V\uf977
asV\u6231
(lp665
V\u6232
aV\u622f
aV\u6232
asV\u6435
(lp666
V\u63fe
asV\u85b4
(lp667
V\u82e7
asV\u7e39
(lp668
V\u7f25
asV\u5cba
(lp669
V\u5cad
asV\u91bc
(lp670
V\u71d5
asV\u8a41
(lp671
V\u8bc2
asV\u5b4b
(lp672
V\u36e4
asV\u64ca
(lp673
V\u51fb
aV\u6483
asV\u984d
(lp674
V\u981f
aV\u989d
asV\u9251
(lp675
V\u94c2
asV\u9455
(lp676
V\u9527
asV\u8ad6
(lp677
V\u8bba
aV\uf941
asV\U00029947
(lp678
V\U00029a0d
asV\u8cda
(lp679
V\u8d49
asV\u5be0
(lp680
V\u7ab6
asV\u98e2
(lp681
V\u9951
aV\u9965
asV\u5de4
(lp682
V\u9b23
asV\u7167
(lp683
V\u70a4
aV\u70a4
asV\u92e6
(lp684
V\u9514
asV\u8b6b
(lp685
V\u8c35
asV\u5e79
(lp686
V\u5e72
asV\u507d
(lp687
V\u4f2a
aV\u50de
asV\u71fc
(lp688
V\u70ec
asV\u8008
(lp689
V\u8007
asV\u9e0c
(lp690
V\u9e71
asV\u9410
(lp691
V\u9563
asV\u5712
(lp692
V\u56ed
asV\u9214
(lp693
V\u949e
asV\u4e97
(lp694
V\u6b72
asV\u8999
(lp695
V\u89bc
asV\u9da1
(lp696
V\u9e56
asV\u7526
(lp697
V\u7a4c
asV\u91a9
(lp698
V\u7cdf
asV\u732a
(lp699
V\u8c6c
aV\ufa16
asV\u4e2c
(lp700
V\u723f
asV\u6aaf
(lp701
V\u53f0
asV\u4430
(lp702
V\u9948
asV\u60b3
(lp703
V\u5fb7
aV\u5fb7
asV\u5fcd
(lp704
V\u38fc
asV\u9acf
(lp705
V\u9ac5
asV\u69d9
(lp706
V\u69c7
asV\u865c
(lp707
V\u64c4
aV\u864f
aV\uf936
asV\u7de1
(lp708
V\u7f17
asV\u9c60
(lp709
V\u81be
aV\u9c99
asV\u9a64
(lp710
V\u9aa7
asV\u8fed
(lp711
V\u758a
asV\u7d76
(lp712
V\u7d55
asV\u6607
(lp713
V\u5347
asV\u838a
(lp714
V\u5e84
aV\u5e84
aV\u8358
asV\u7a0f
(lp715
V\u4149
asV\u9792
(lp716
V\u6a47
asV\u5294
(lp717
V\u528e
aV\u528d
asV\u6898
(lp718
V\u67a7
asV\U0002219e
(lp719
V\u412f
asV\u9823
(lp720
V\u9824
asV\u9627
(lp721
V\u9661
asV\u8eac
(lp722
V\u8eb3
asV\uf939
(lp723
V\u9b6f
asV\u98b8
(lp724
V\u98d4
asV\u65c6
(lp725
V\u65be
asV\uf9ce
(lp726
V\u786b
asV\u8dd6
(lp727
V\u8e60
asV\u81de
(lp728
V\u766f
asV\u7667
(lp729
V\u75ac
asV\u50e8
(lp730
V\u507e
asV\u8c6b
(lp731
V\u9810
aV\u4e88
asV\U000293ea
(lp732
V\U000293fd
asV\u6eec
(lp733
V\u6caa
asV\u64f0
(lp734
V\u62e7
asV\u8073
(lp735
V\u8038
asV\u62f4
(lp736
V\u63ce
asV\u5979
(lp737
V\u4ed6
asV\u927f
(lp738
V\u94ea
asV\u8b04
(lp739
V\u8a8a
asV\u8108
(lp740
V\u8109
asV\u7e8d
(lp741
V\u7d2f
asV\u9f0c
(lp742
V\u9f02
asV\u9510
(lp743
V\u92b3
asV\u6a1a
(lp744
V\u8f46
asV\u869d
(lp745
V\u8786
asV\u6baf
(lp746
V\u6ba1
asV\u5938
(lp747
V\u8a87
asV\u9a3a
(lp748
V\u9a47
asV\u903e
(lp749
V\u8e30
asV\u87c7
(lp750
V\u87c6
asV\u40c9
(lp751
V\u73c9
asV\u6148
(lp752
V\u3935
asV\u7f4c
(lp753
V\u7f42
asV\u91d3
(lp754
V\u9486
asV\u52d5
(lp755
V\u52a8
asV\u7ce1
(lp756
V\u7ce8
asV\u9d60
(lp757
V\u9e44
asV\u5e62
(lp758
V\u6a66
asV\u526a
(lp759
V\u7fe6
asV\u686e
(lp760
V\u676f
asV\u8e82
(lp761
V\u8df6
asV\u7d0b
(lp762
V\u7eb9
asV\u828a
(lp763
V\u831c
asV\u5f8c
(lp764
V\u540e
asV\u5590
(lp765
V\u90c1
asV\u8f17
(lp766
V\U0002b410
asV\u6998
(lp767
V\u77e9
asV\u679c
(lp768
V\u83d3
asV\u7da0
(lp769
V\u6c2f
aV\u7eff
aV\uf93d
asV\u9727
(lp770
V\u96fe
asV\u71a8
(lp771
V\u3dc9
asV\u85b0
(lp772
V\u85ab
asV\u50be
(lp773
V\u503e
asV\u62ca
(lp774
V\u64ab
asV\u9451
(lp775
V\u9452
aV\u9452
asV\u9255
(lp776
V\u94b7
asV\u80de
(lp777
V\u812c
asV\uf963
(lp778
V\u5317
asV\u51e8
(lp779
V\u98a8
asV\u92ea
(lp780
V\u8216
aV\u94fa
asV\u6fec
(lp781
V\u6d5a
aV\u6d5a
asV\u8b6f
(lp782
V\u8bd1
aV\u8a33
asV\U000282e2
(lp783
V\u4882
asV\u8173
(lp784
V\u811a
aV\u811a
asV\u9f77
(lp785
V\u9f8c
asV\u5879
(lp786
V\u58cd
aV\u5811
asV\u79f8
(lp787
V\u7a2d
asV\u6f81
(lp788
V\u6f80
asV\u8208
(lp789
V\u34b7
aV\u5174
asV\u9c0c
(lp790
V\u4ca1
aV\u9c0d
asV\u8b99
(lp791
V\u6b61
asV\u9fa1
(lp792
V\u5439
asV\u7d22
(lp793
V\uf96a
asV\u7726
(lp794
V\u7725
asV\u93a9
(lp795
V\u94e9
asV\u6eab
(lp796
V\u6e29
aV\u6e29
asV\u993a
(lp797
V\u998e
asV\u4fc1
(lp798
V\u4fe3
asV\u5dcd
(lp799
V\u9b4f
asV\u7c4c
(lp800
V\u7b79
asV\U000298cf
(lp801
V\U000299f6
asV\u7054
(lp802
V\u7069
asV\u8a58
(lp803
V\u8bce
asV\uf9e5
(lp804
V\u75e2
asV\u516a
(lp805
V\u4fde
asV\u7f76
(lp806
V\u7f80
asV\uf97a
(lp807
V\u6881
asV\u737e
(lp808
V\u8c9b
asV\u4e80
(lp809
V\u9f9c
asV\u8d82
(lp810
V\u8d81
aV\u8d81
asV\u6407
(lp811
V\u64b3
asV\U00020786
(lp812
V\U000206c6
asV\u7e0b
(lp813
V\u7f12
asV\u6a98
(lp814
V\u8617
asV\u9a23
(lp815
V\u9a0c
aV\u9b03
asV\u5925
(lp816
V\u4f19
asV\u9427
(lp817
V\u950f
asV\u8cac
(lp818
V\u8d23
asV\u80b4
(lp819
V\u991a
asV\u753d
(lp820
V\u754e
asV\u67c6
(lp821
V\u62c9
asV\u584f
(lp822
V\u57b2
asV\u9751
(lp823
V\u9752
asV\u75d2
(lp824
V\u7662
asV\u5ee0
(lp825
V\u53b0
aV\u5382
aV\u53b0
asV\u7a63
(lp826
V\u7a70
asV\u58e4
(lp827
V\u58cc
asV\u8273
(lp828
V\u8c54
asV\u9c77
(lp829
V\u9c10
aV\u9cc4
asV\u7af8
(lp830
V\u7af6
asV\u907f
(lp831
V\u8f9f
asV\u6e81
(lp832
V\u6fda
asV\U00021839
(lp833
V\u36ff
asV\u6885
(lp834
V\u6973
asV\u6289
(lp835
V\u5214
asV\u8308
(lp836
V\u67f4
asV\u5412
(lp837
V\u54a4
aV\u54a4
asV\u9114
(lp838
V\u5862
aV\u90ac
asV\u621e
(lp839
V\u621b
asV\u55a7
(lp840
V\u8ae0
aV\u5405
asV\u7626
(lp841
V\u75e9
asV\u92a9
(lp842
V\u94e5
asV\u4d2c
(lp843
V\U0002a388
asV\u8432
(lp844
V\u8431
asV\u5b38
(lp845
V\u5a76
asV\u923e
(lp846
V\u94c0
asV\u4ec1
(lp847
V\u5fc8
asV\u6f40
(lp848
V\u6f68
asV\u8bc3
(lp849
V\u5475
asV\u85c7
(lp850
V\U000288e6
asV\u7d4c
(lp851
V\u7d93
asV\u56d1
(lp852
V\u5631
aV\u5631
asV\u50d5
(lp853
V\u4ec6
asV\u8b58
(lp854
V\u8bc6
asV\u9f60
(lp855
V\u9f86
asV\u5c62
(lp856
V\u5c61
aV\uf94b
asV\u78e5
(lp857
V\u78ca
asV\u5666
(lp858
V\U00027b28
aV\u54d5
asV\u506a
(lp859
V\u903c
asV\u8ced
(lp860
V\u8d4c
asV\U0002146d
(lp861
V\U000212d7
asV\u7f0b
(lp862
V\u7e6a
asV\u3c0d
(lp863
V\u6af3
asV\u5d8c
(lp864
V\u5cf6
asV\uf90f
(lp865
V\u7f85
asV\U00027313
(lp866
V\u86d7
asV\u8d17
(lp867
V\u8d5d
aV\u8d0b
asV\u6b98
(lp868
V\u6b8b
asV\u5e21
(lp869
V\u5e32
asV\u9b23
(lp870
V\u5de4
asV\uf9a4
(lp871
V\u637b
asV\u5229
(lp872
V\U00025762
aV\uf9dd
asV\U000207b0
(lp873
V\u527f
asV\u5eb6
(lp874
V\u5ebb
asV\u9bb8
(lp875
V\U00029f83
asV\u95bc
(lp876
V\u960f
asV\u4b43
(lp877
V\U00029808
asV\u8845
(lp878
V\u91c1
asV\u66c6
(lp879
V\u5386
asV\U00028249
(lp880
V\U0002821a
asV\u9055
(lp881
V\u8fdd
asV\u615f
(lp882
V\u6078
asV\u7567
(lp883
V\u7565
aV\u7565
asV\u53e8
(lp884
V\u9955
asV\u896f
(lp885
V\u512d
aV\u886c
asV\u67f0
(lp886
V\u5948
aV\u5948
asV\u8373
(lp887
V\u8c46
asV\u61f4
(lp888
V\u61fa
asV\u9d77
(lp889
V\u9e53
asV\u38fa
(lp890
V\u5fc3
asV\u75fc
(lp891
V\u3f7d
asV\u7785
(lp892
V\u77c1
asV\u7d89
(lp893
V\u7e61
aV\u7e61
asV\u9c08
(lp894
V\u9cbd
asV\u5f0a
(lp895
V\U00021681
asV\U0002820c
(lp896
V\U00028104
asV\u8810
(lp897
V\u86f4
asV\u4b12
(lp898
V\u98bc
asV\u9599
(lp899
V\u9b27
aV\u9b27
asV\u9b9d
(lp900
V\u9bd7
asV\u873a
(lp901
V\u9713
asV\u5dc9
(lp902
V\u5d84
asV\u624c
(lp903
V\u624b
asV\u8cd3
(lp904
V\u8cd4
aV\u5bbe
asV\u75d9
(lp905
V\u75c9
asV\u67e5
(lp906
V\u67fb
aV\u67fb
asV\u56ef
(lp907
V\u570b
aV\u570b
asV\u756e
(lp908
V\u755d
asV\u99f1
(lp909
V\u9a86
aV\uf91a
asV\u6176
(lp910
V\u5e86
asV\u85f9
(lp911
V\u853c
asV\u4eff
(lp912
V\u5023
aV\u5023
asV\u9382
(lp913
V\u9541
asV\ufa07
(lp914
V\u8f3b
asV\u660f
(lp915
V\u662c
asV\u6c13
(lp916
V\u753f
asV\u8b92
(lp917
V\u8c17
asV\u4e94
(lp918
V\u3405
aV\u4f0d
asV\u7498
(lp919
V\uf9ef
asV\u5b1d
(lp920
V\u88ca
asV\u60a0
(lp921
V\u6efa
asV\u6ca8
(lp922
V\u6e22
asV\u92ac
(lp923
V\u94d0
asV\u55ae
(lp924
V\u5355
aV\u5355
aV\u5358
asV\u7931
(lp925
V\U00024ba8
aV\u783b
asV\u98b0
(lp926
V\U00029665
asV\u9eb4
(lp927
V\u9eaf
aV\u9eb9
asV\u84b8
(lp928
V\u70dd
asV\u6b3d
(lp929
V\u94a6
asV\u8abc
(lp930
V\u8c0a
asV\u79c6
(lp931
V\u7a08
asV\u9d49
(lp932
V\u9e1e
asV\u834d
(lp933
V\u854e
asV\u8f55
(lp934
V\u8f35
asV\u91d6
(lp935
V\u528d
asV\u7e5f
(lp936
V\U0002620e
asV\u6463
(lp937
V\u63f8
asV\u83e2
(lp938
V\u52fd
asV\u8fea
(lp939
V\u5ef8
asV\u536d
(lp940
V\u536c
asV\u72ec
(lp941
V\u7368
asV\u8277
(lp942
V\u8273
aV\u8c54
asV\u64f8
(lp943
V\u39dc
asV\u7081
(lp944
V\u6c23
asV\u5202
(lp945
V\u5200
aV\u5200
asV\u9d08
(lp946
V\u96c1
aV\u96c1
asV\u628d
(lp947
V\u62ef
asV\u8f14
(lp948
V\u8f85
asV\u7c1e
(lp949
V\u7baa
asV\u80a1
(lp950
V\U00026676
aV\u8135
asV\u45a3
(lp951
V\u86a4
asV\u8ca9
(lp952
V\U00027db6
aV\u8d29
asV\u77af
(lp953
V\u77b7
asV\u942e
(lp954
V\u938c
aV\u9570
asV\u7db3
(lp955
V\u7e43
aV\u7e43
asV\u863a
(lp956
V\u84e0
asV\u95c3
(lp957
V\u9612
asV\u56c5
(lp958
V\u5181
asV\u9bc7
(lp959
V\u9ca9
asV\u634c
(lp960
V\u516b
asV\u6f54
(lp961
V\u6d01
asV\u565a
(lp962
V\u358a
asV\u7add
(lp963
V\u4e26
asV\u60e1
(lp964
V\u6076
aV\uf9b9
asV\u66e5
(lp965
V\U00023190
asV\u92ed
(lp966
V\u92b3
asV\u8a92
(lp967
V\u8bf6
aV\u5509
asV\u991b
(lp968
V\u992b
aV\u9984
asV\u8523
(lp969
V\u848b
asV\u722d
(lp970
V\u4e89
aV\u4e89
asV\u93ac
(lp971
V\u9550
asV\u7e35
(lp972
V\u7f26
asV\u6a3d
(lp973
V\u7f47
asV\U000231c0
(lp974
V\u6661
asV\u5543
(lp975
V\u9f66
asV\u78c6
(lp976
V\u6ed1
asV\u9c49
(lp977
V\u9f08
aV\u9cd6
aV\u9f9e
asV\u8e55
(lp978
V\u8df8
asV\uf95b
(lp979
V\u62cf
asV\u5bdc
(lp980
V\u5bd5
aV\u5be7
asV\u82e2
(lp981
V\u82e1
asV\u6b67
(lp982
V\u5c90
asV\U000288e6
(lp983
V\u85c7
asV\uf9f0
(lp984
V\u85fa
asV\u5e75
(lp985
V\u5f00
asV\u7381
(lp986
V\u736b
aV\U000247a4
asV\u9200
(lp987
V\u8019
aV\u94af
asV\u5102
(lp988
V\u4fac
asV\u9404
(lp989
V\U00028c51
asV\u8a10
(lp990
V\u8ba6
asV\u6d95
(lp991
V\u4d8f
aV\u6d1f
asV\u9799
(lp992
V\u7404
asV\u751a
(lp993
V\uf9fd
asV\U000205a5
(lp994
V\u5bf5
asV\u6d2a
(lp995
V\u6d1a
asV\u74af
(lp996
V\u3ec5
asV\U00029932
(lp997
V\U00029a09
asV\u8336
(lp998
V\uf9fe
asV\u6abb
(lp999
V\u69db
asV\u8f3e
(lp1000
V\u8f97
asV\u53c1
(lp1001
V\u4e09
aV\u53c3
asV\u7240
(lp1002
V\u5e8a
aV\u5e8a
asV\u55c5
(lp1003
V\u9f45
asV\u7e48
(lp1004
V\u7e66
asV\u6a50
(lp1005
V\u69d6
asV\u77d9
(lp1006
V\u77b0
asV\u9658
(lp1007
V\u9649
asV\uf9dd
(lp1008
V\u5229
asV\u5f5e
(lp1009
V\u5f5d
asV\u8464
(lp1010
V\u836e
asV\u54ef
(lp1011
V\U00020bdf
asV\u9bf1
(lp1012
V\U00029f87
asV\u5ef3
(lp1013
V\u5385
aV\u5ef0
asV\uf972
(lp1014
V\u700b
asV\u6376
(lp1015
V\u7ba0
aV\u6425
asV\u87f9
(lp1016
V\u880f
asV\u657a
(lp1017
V\u9a45
asV\u7807
(lp1018
V\u73c9
asV\u9d8a
(lp1019
V\u9e52
asV\u878e
(lp1020
V\u878d
asV\u6e13
(lp1021
V\u6eaa
asV\u9c1f
(lp1022
V\u9cd1
asV\u8827
(lp1023
V\u8799
aV\u8839
asV\u4f29
(lp1024
V\u4fe1
asV\u712d
(lp1025
V\u7162
asV\u342f
(lp1026
V\u5eb8
asV\u7d35
(lp1027
V\u7ebb
asV\u7dca
(lp1028
V\U000260b3
aV\u7d27
asV\U0002814d
(lp1029
V\U00028074
asV\u56d8
(lp1030
V\u56de
asV\u7c5f
(lp1031
V\u7c41
asV\u81e2
(lp1032
V\u81dc
asV\u516d
(lp1033
V\uf9d1
asV\u7cf4
(lp1034
V\u7c74
asV\u8077
(lp1035
V\u8ec4
aV\u804c
asV\u66f8
(lp1036
V\u4e66
asV\u8a7b
(lp1037
V\u54af
asV\u7281
(lp1038
V\u7282
aV\u7282
asV\u5002
(lp1039
V\u4f75
asV\u7e89
(lp1040
V\u7e98
asV\u9f08
(lp1041
V\u9c49
aV\u9c49
asV\u8b10
(lp1042
V\u8c27
asV\u8d14
(lp1043
V\u8d51
asV\u5197
(lp1044
V\u5b82
aV\u5b82
asV\u7e1e
(lp1045
V\u7f1f
asV\u73ab
(lp1046
V\u739f
asV\u962e
(lp1047
V\uf9c6
asV\u5b30
(lp1048
V\u5b7e
aV\u5a74
asV\u9832
(lp1049
V\u988b
asV\u8236
(lp1050
V\u824a
asV\u6bbb
(lp1051
V\u58f3
aV\u6bbc
asV\u52c1
(lp1052
V\u52b2
asV\u97c3
(lp1053
V\u9791
asV\u7544
(lp1054
V\u7559
asV\u5ec9
(lp1055
V\uf9a2
asV\u7f48
(lp1056
V\u575b
asV\u83cb
(lp1057
V\u82ff
asV\u85cf
(lp1058
V\u8535
asV\u6b50
(lp1059
V\u6b27
asV\u76d9
(lp1060
V\u7c20
asV\u995c
(lp1061
V\u990d
asV\u5e5e
(lp1062
V\u896e
asV\u62e1
(lp1063
V\u64f4
asV\u8564
(lp1064
V\u7524
asV\u53eb
(lp1065
V\u544c
asV\u766e
(lp1066
V\u763e
asV\u4bfb
(lp1067
V\u9afb
asV\u88fd
(lp1068
V\u5236
asV\u3405
(lp1069
V\u4e94
asV\u5584
(lp1070
V\u8b71
asV\uf907
(lp1071
V\u9f9c
asV\u650f
(lp1072
V\u62e2
asV\u8892
(lp1073
V\u8962
asV\u7798
(lp1074
V\u770d
asV\u349a
(lp1075
V\u7a69
asV\u581d
(lp1076
V\u57da
asV\uf99c
(lp1077
V\u5217
asV\u9d1f
(lp1078
V\u9e31
asV\u63a0
(lp1079
V\uf975
asV\u65a4
(lp1080
V\u89d4
aV\u89d4
asV\u8927
(lp1081
V\u7d45
asV\u91ac
(lp1082
V\u9171
asV\u7a31
(lp1083
V\u79f0
asV\u9bb0
(lp1084
V\U0002b694
asV\u9db4
(lp1085
V\u9e64
asV\u89bc
(lp1086
V\U0002b328
asV\u4ebe
(lp1087
V\u4ea1
asV\u9241
(lp1088
V\U00028c45
asV\u5947
(lp1089
V\u7ad2
aV\u7ad2
asV\u7ac6
(lp1090
V\u7aae
asV\u7cca
(lp1091
V\u80e1
asV\u8a51
(lp1092
V\U0002b35f
asV\u59dc
(lp1093
V\u8591
asV\u9ede
(lp1094
V\u70b9
aV\u70b9
aV\u594c
asV\u8ae6
(lp1095
V\u8c1b
asV\u936b
(lp1096
V\u936c
asV\u8cea
(lp1097
V\u8cad
aV\u8d28
aV\u8cad
asV\u7df4
(lp1098
V\u7ec3
asV\u69fc
(lp1099
V\u691d
asV\u7385
(lp1100
V\u5999
aV\u5999
asV\u9204
(lp1101
V\u94ad
asV\uf989
(lp1102
V\u9ece
asV\u9808
(lp1103
V\u6e4f
aV\u987b
asV\u9f9d
(lp1104
V\u79cb
aV\u418b
asV\uf91e
(lp1105
V\u721b
asV\u6722
(lp1106
V\u671b
aV\u671b
asV\u4ea7
(lp1107
V\u7522
asV\u89a9
(lp1108
V\u7779
asV\u74ab
(lp1109
V\u73f0
asV\u5c30
(lp1110
V\u816b
asV\u55c1
(lp1111
V\u557c
asV\u53c5
(lp1112
V\u53c3
asV\u7244
(lp1113
V\u8e4c
asV\u59c9
(lp1114
V\u59ca
aV\u59ca
asV\u84cb
(lp1115
V\u76d6
asV\u5556
(lp1116
V\u5557
asV\u71d9
(lp1117
V\u70eb
asV\u535a
(lp1118
V\u613d
aV\u613d
asV\u8264
(lp1119
V\u8223
asV\u97ed
(lp1120
V\u97ee
aV\u827d
asV\u716e
(lp1121
V\u7151
aV\u7151
asV\u58f3
(lp1122
V\u6bbc
asV\u5480
(lp1123
V\u5634
asV\u7003
(lp1124
V\U00023f77
asV\u5284
(lp1125
V\u5273
asV\u5888
(lp1126
V\u78e1
asV\u9b8a
(lp1127
V\u9c8c
asV\u9c1b
(lp1128
V\u9cc1
asV\u7e9c
(lp1129
V\u432b
aV\u7f06
asV\u9a1f
(lp1130
V\U00029a08
asV\u4325
(lp1131
V\u7e2f
aV\U00026220
asV\u68a8
(lp1132
V\u68c3
aV\uf9e2
asV\u342b
(lp1133
V\u51f6
asV\u7d31
(lp1134
V\u7ec2
asV\u5043
(lp1135
V\u3ac3
asV\u5e47
(lp1136
V\u5e6b
asV\u9949
(lp1137
V\u9991
asV\u95d6
(lp1138
V\u95ef
asV\uf9a5
(lp1139
V\u6bae
asV\u7c5b
(lp1140
V\u7bef
asV\u99de
(lp1141
V\u99dd
asV\u6e67
(lp1142
V\u6d8c
aV\u6d8c
asV\u576d
(lp1143
V\u6ce5
asV\u7cf0
(lp1144
V\u429c
asV\u9873
(lp1145
V\u989e
asV\u5b75
(lp1146
V\u5b5a
asV\u8c7b
(lp1147
V\u72b4
asV\u8a7f
(lp1148
V\u8bd6
asV\u7481
(lp1149
V\U000249da
asV\u9304
(lp1150
V\u5f55
aV\u9332
asV\u5c06
(lp1151
V\U0002456d
asV\U00027b28
(lp1152
V\u5666
asV\u8d10
(lp1153
V\u8cee
aV\u8d46
asV\u8b14
(lp1154
V\u8c11
asV\u5b9f
(lp1155
V\u5be6
asV\u572c
(lp1156
V\u6747
asV\u902e
(lp1157
V\u8fe8
aV\u8fe8
asV\uf9b3
(lp1158
V\u9748
asV\u91c3
(lp1159
V\u917e
asV\u7344
(lp1160
V\u72f1
asV\uf948
(lp1161
V\u8cc2
asV\u70d9
(lp1162
V\uf916
asV\u7edd
(lp1163
V\u7d55
asV\u9f5c
(lp1164
V\u9f87
asV\u585e
(lp1165
V\uf96c
asV\u64e1
(lp1166
V\u62ac
asV\uf93a
(lp1167
V\u9dfa
asV\u706e
(lp1168
V\u5149
asV\u7e72
(lp1169
V\u632b
asV\u6476
(lp1170
V\u629f
asV\u627a
(lp1171
V\u62b5
asV\u8efd
(lp1172
V\u8f15
asV\u9682
(lp1173
V\u9670
asV\u5384
(lp1174
V\u6239
aV\u9628
asV\u650b
(lp1175
V\u63e6
asV\u8e92
(lp1176
V\u8dde
asV\u9d1b
(lp1177
V\u9e33
asV\u8123
(lp1178
V\u5507
aV\u5507
asV\u8f27
(lp1179
V\u8eff
asV\u69a8
(lp1180
V\u91a1
asV\U00029db0
(lp1181
V\U00029f7f
asV\u81b8
(lp1182
V\u9ad3
asV\u9245
(lp1183
V\u949c
aV\u5de8
asV\u7aca
(lp1184
V\u7a83
aV\u7a83
asV\u8a55
(lp1185
V\u8bc4
asV\u7d5b
(lp1186
V\u7e1a
aV\u7ee6
asV\u5fdc
(lp1187
V\u61c9
asV\u6163
(lp1188
V\u60ef
asV\u8ce6
(lp1189
V\u8d4b
asV\u7df0
(lp1190
V\U00026215
asV\u7bf4
(lp1191
V\u7b1b
asV\u61f8
(lp1192
V\u60ac
asV\u6ffc
(lp1193
V\u6cfa
aV\u6cca
asV\U00029600
(lp1194
V\U00029669
asV\u7185
(lp1195
V\u7174
asV\u9a08
(lp1196
V\u99e2
aV\u99e2
asV\u590a
(lp1197
V\u6535
asV\u658d
(lp1198
V\u89ba
asV\u840c
(lp1199
V\u8420
asV\u6f91
(lp1200
V\u6e9c
asV\u8e10
(lp1201
V\u8df5
asV\u8814
(lp1202
V\U00027422
asV\u9399
(lp1203
V\u69ca
asV\u6522
(lp1204
V\u6505
aV\u6512
aV\u6505
asV\u542c
(lp1205
V\u807d
asV\u70af
(lp1206
V\u70f1
aV\u70f1
asV\u932e
(lp1207
V\u9522
asV\u5e30
(lp1208
V\u6b78
asV\u9d32
(lp1209
V\U0002a246
asV\u5834
(lp1210
V\u5872
aV\u573a
aV\u5872
asV\u8736
(lp1211
V\u87c0
asV\u6ebb
(lp1212
V\u891f
asV\u8b3e
(lp1213
V\u8c29
asV\U00027640
(lp1214
V\U000277aa
asV\u92c3
(lp1215
V\u9512
asV\u51c5
(lp1216
V\u6db8
asV\u7044
(lp1217
V\u6ee0
asV\u86cb
(lp1218
V\u8711
aV\u65e6
asV\u7ddd
(lp1219
V\u7f09
asV\u61e5
(lp1220
V\u61eb
asV\u736e
(lp1221
V\u72dd
asV\u7d72
(lp1222
V\u4e1d
aV\u7e9f
asV\u4efb
(lp1223
V\u4efc
aV\u4efc
asV\u5680
(lp1224
V\u549b
asV\u9582
(lp1225
V\u95e9
asV\u6a13
(lp1226
V\u697c
aV\uf94c
asV\u8d92
(lp1227
V\u8df3
asV\u5319
(lp1228
V\u9349
asV\u9e1b
(lp1229
V\u9e73
asV\u981f
(lp1230
V\u984d
asV\u60a4
(lp1231
V\u5306
asV\u9eb0
(lp1232
V\u725f
asV\uf935
(lp1233
V\u8606
asV\U000298b4
(lp1234
V\U000299f5
asV\u82b8
(lp1235
V\u85dd
asV\u8cbc
(lp1236
V\u8d34
asV\u4bbe
(lp1237
V\U000299ea
asV\u5243
(lp1238
V\u9b00
asV\u7fc6
(lp1239
V\u7fe0
asV\u79ca
(lp1240
V\uf995
asV\u63ce
(lp1241
V\u62f4
asV\u6dd2
(lp1242
V\u51c4
aV\u51c4
asV\u8955
(lp1243
V\u8974
asV\U0002f8d2
(lp1244
V\u5192
asV\u78f4
(lp1245
V\u5d9d
asV\u8477
(lp1246
V\u8364
asV\u8e7b
(lp1247
V\u8e7a
aV\U0002b3cb
asV\u7681
(lp1248
V\u7682
aV\u7682
asV\u7085
(lp1249
V\u803f
asV\u5e06
(lp1250
V\u3836
asV\u580a
(lp1251
V\u57a9
aV\u8056
asV\u648d
(lp1252
V\u63dd
asV\ufa1e
(lp1253
V\u7fbd
asV\u6e26
(lp1254
V\u6da1
asV\u8aa9
(lp1255
V\u7af6
asV\u922e
(lp1256
V\u94cc
asV\u7bb3
(lp1257
V\u7c08
asV\u9c32
(lp1258
V\u9f07
aV\u9ccc
asV\u65b7
(lp1259
V\u65ad
aV\u65ad
asV\u69bf
(lp1260
V\u6864
asV\u56c1
(lp1261
V\u8b98
aV\u55eb
asV\u7740
(lp1262
V\u8457
asV\u93c3
(lp1263
V\u955e
asV\u50c5
(lp1264
V\u4ec5
asV\u5ac9
(lp1265
V\U00021731
asV\u81cf
(lp1266
V\u9ad5
aV\u8191
aV\u9ad5
asV\u9358
(lp1267
V\u94e1
asV\u7cdd
(lp1268
V\u7cc1
asV\u9d5c
(lp1269
V\u9d3a
aV\u9e48
asV\u5bf3
(lp1270
V\u5bf6
asV\u7c72
(lp1271
V\u9fa5
asV\U00026676
(lp1272
V\u80a1
asV\u4ffb
(lp1273
V\u5099
aV\u5099
asV\u8cfd
(lp1274
V\u8d5b
asV\u9482
(lp1275
V\u954b
asV\u5184
(lp1276
V\u5189
asV\u7d07
(lp1277
V\u7ea5
asV\u3a09
(lp1278
V\u62bf
asV\u6b13
(lp1279
V\u6a94
aV\U000235cb
asV\U00029517
(lp1280
V\u985e
asV\u7d9c
(lp1281
V\u7efc
asV\u991f
(lp1282
V\u918a
asV\u61a4
(lp1283
V\u6124
asV\u6ba8
(lp1284
V\u3c6e
asV\u95ac
(lp1285
V\u9606
asV\u7e31
(lp1286
V\u7eb5
asV\U0002f835
(lp1287
V\u7070
asV\u99b4
(lp1288
V\u9a6f
asV\u6239
(lp1289
V\u5384
asV\u6c3d
(lp1290
V\u5c3f
asV\u9641
(lp1291
V\u9640
asV\u5343
(lp1292
V\u4edf
aV\u4edf
asV\u9045
(lp1293
V\u9072
asV\u474b
(lp1294
V\u8c75
asV\u78ca
(lp1295
V\u78e5
aV\uf947
asV\u8855
(lp1296
V\u540c
asV\u96d6
(lp1297
V\u867d
asV\u53d8
(lp1298
V\u8b8a
asV\uf95f
(lp1299
V\u5be7
asV\U000297a6
(lp1300
V\U0002980f
asV\u5e71
(lp1301
V\u8974
asV\u5875
(lp1302
V\u5c18
asV\uf9f4
(lp1303
V\u6797
asV\u8577
(lp1304
V\u84e3
asV\u4c7d
(lp1305
V\u9be7
aV\u4c9d
asV\u897f
(lp1306
V\u8980
asV\uf981
(lp1307
V\u5973
asV\u7f85
(lp1308
V\u7f57
aV\u7f57
aV\uf90f
asV\u5106
(lp1309
V\u8b66
asV\u8a0c
(lp1310
V\u8ba7
asV\u6191
(lp1311
V\u51ed
aV\u51f4
asV\u8010
(lp1312
V\u800f
asV\u8614
(lp1313
V\u860f
asV\uf916
(lp1314
V\u70d9
asV\u939d
(lp1315
V\U00028c4f
asV\u751e
(lp1316
V\u5617
aV\u5617
asV\u89a1
(lp1317
V\u89cb
asV\u85a9
(lp1318
V\u8428
asV\u5a2c
(lp1319
V\u5af5
asV\U00027eaf
(lp1320
V\ufa23
asV\u9332
(lp1321
V\u9304
asV\u5634
(lp1322
V\u5480
asV\U0002145e
(lp1323
V\u96a7
asV\u92c7
(lp1324
V\u94a1
asV\u55c9
(lp1325
V\u8186
asV\u8ecf
(lp1326
V\U0002b404
asV\u6050
(lp1327
V\U00022662
asV\u5956
(lp1328
V\u596c
asV\u7dd9
(lp1329
V\u7f02
asV\u9c58
(lp1330
V\u9c9f
asV\u5f5a
(lp1331
V\u5f59
asV\u555e
(lp1332
V\u7602
aV\u54d1
aV\u5516
asV\u8e64
(lp1333
V\u8e2a
aV\u8e2a
aV\u8e28
asV\U00029bed
(lp1334
V\u9b13
asV\u7372
(lp1335
V\u83b7
asV\u97f5
(lp1336
V\u97fb
asV\u5e84
(lp1337
V\u838a
asV\u9a17
(lp1338
V\u9a19
asV\u5d19
(lp1339
V\uf9d5
asV\u7c98
(lp1340
V\u9ecf
asV\u8c23
(lp1341
V\u8b20
asV\u5dae
(lp1342
V\u5d04
asV\u53b2
(lp1343
V\u5386
aV\u5389
asV\U00027735
(lp1344
V\u464a
asV\u96b4
(lp1345
V\u9647
asV\u8cb8
(lp1346
V\u8d37
asV\u9941
(lp1347
V\u998c
asV\u9f45
(lp1348
V\u55c5
asV\u5247
(lp1349
V\u5219
asV\u63d2
(lp1350
V\u6271
asV\u8755
(lp1351
V\u8680
asV\u7a57
(lp1352
V\u7a42
asV\u765f
(lp1353
V\u762a
asV\u95de
(lp1354
V\u961a
asV\u4ee4
(lp1355
V\uf9a8
asV\u6267
(lp1356
V\u57f7
asV\u986b
(lp1357
V\u98a4
asV\u5b6d
(lp1358
V\U00027d2f
asV\u5775
(lp1359
V\u4e18
asV\u807b
(lp1360
V\u9b59
asV\u62fc
(lp1361
V\u6452
asV\u9f04
(lp1362
V\u86db
aV\u86db
asV\u5006
(lp1363
V\u4fe9
asV\u7489
(lp1364
V\u740f
asV\u9508
(lp1365
V\u93fd
asV\u8b0c
(lp1366
V\u6b4c
asV\u7e1a
(lp1367
V\u7d5b
asV\u6a22
(lp1368
V\u3b64
asV\u8ea5
(lp1369
V\u8e7f
asV\uf9ab
(lp1370
V\u5dba
asV\u662a
(lp1371
V\u5fed
asV\u9c2e
(lp1372
V\u9cc1
asV\u9232
(lp1373
V\U00028c43
asV\u8836
(lp1374
V\u8695
aV\u8695
asV\U00020e3a
(lp1375
V\U00020c58
asV\uf940
(lp1376
V\u9e7f
asV\u9dc3
(lp1377
V\u9d33
asV\u93c7
(lp1378
V\u955f
asV\u6b4c
(lp1379
V\u8b0c
asV\u7cd9
(lp1380
V\u3ff7
asV\u5e5a
(lp1381
V\u5e6b
asV\u935c
(lp1382
V\u7146
asV\u68e1
(lp1383
V\u3b4e
asV\u8960
(lp1384
V\u88c6
asV\u8f64
(lp1385
V\u8f73
asV\u59eb
(lp1386
V\u59ec
asV\u7c6e
(lp1387
V\u7ba9
asV\u82fd
(lp1388
V\u83c7
asV\u9a82
(lp1389
V\u7f75
asV\u968a
(lp1390
V\u961f
asV\u6f0f
(lp1391
V\uf94e
asV\u8c8e
(lp1392
V\u7683
asV\u8292
(lp1393
V\u6767
asV\u5c19
(lp1394
V\u5c1a
asV\u349e
(lp1395
V\u5136
asV\u6fa4
(lp1396
V\u6cfd
aV\u6ca2
asV\u7a2d
(lp1397
V\u79f8
asV\u97b4
(lp1398
V\u7d65
asV\u4eba
(lp1399
V\u4ebb
asV\u83bc
(lp1400
V\u8493
asV\U00025d43
(lp1401
V\U00025c54
asV\u5347
(lp1402
V\u6607
asV\u76ca
(lp1403
V\ufa17
aV\ufa17
asV\u8655
(lp1404
V\u5904
aV\u51e6
asV\u53dc
(lp1405
V\u53df
asV\u6d63
(lp1406
V\u6fa3
asV\u8ae2
(lp1407
V\u8be8
asV\u5a6d
(lp1408
V\u5a05
asV\u8b77
(lp1409
V\u62a4
asV\u6df8
(lp1410
V\u6e05
asV\uf92b
(lp1411
V\u72fc
asV\u877f
(lp1412
V\u8805
asV\ufa2d
(lp1413
V\u9db4
asV\u550a
(lp1414
V\u7864
asV\u8210
(lp1415
V\u8213
asV\u6595
(lp1416
V\u6593
asV\u5897
(lp1417
V\u589e
asV\u529b
(lp1418
V\uf98a
asV\u7d1a
(lp1419
V\U00028e1a
aV\u7ea7
asV\u771e
(lp1420
V\u771f
aV\u771f
asV\u652a
(lp1421
V\u641e
aV\u6405
asV\u9132
(lp1422
V\u90f8
asV\u62bb
(lp1423
V\u4f38
asV\u64bf
(lp1424
V\u6361
asV\u7a40
(lp1425
V\u7cd3
aV\u8c37
asV\u9ec3
(lp1426
V\u9ec4
asV\u8acb
(lp1427
V\u8bf7
asV\u684c
(lp1428
V\u68f9
aV\u68f9
asV\u6250
(lp1429
V\u6738
asV\u86d3
(lp1430
V\u8786
asV\U00025d5a
(lp1431
V\u7afb
asV\u905c
(lp1432
V\u613b
aV\u900a
asV\u6be1
(lp1433
V\u6c08
asV\u8a60
(lp1434
V\u548f
aV\u548f
asV\u6de5
(lp1435
V\u6e0c
asV\u67e9
(lp1436
V\u67fe
asV\u5aeb
(lp1437
V\u5b37
asV\u99ed
(lp1438
V\u9a87
asV\u5cef
(lp1439
V\u5cf0
aV\u5cf0
asV\u7f6e
(lp1440
V\u5bd8
aV\u5bd8
asV\u56f3
(lp1441
V\u5716
asV\u42fb
(lp1442
V\u433e
asV\u677e
(lp1443
V\u67a9
asV\u7007
(lp1444
V\u3cbf
asV\u6613
(lp1445
V\uf9e0
asV\u9817
(lp1446
V\u9887
asV\u7e98
(lp1447
V\u7f35
aV\u7e89
asV\u379e
(lp1448
V\U0002aa0a
asV\u4b21
(lp1449
V\u7fe5
asV\u6aa0
(lp1450
V\U00022427
asV\u66a8
(lp1451
V\u66c1
asV\uf92d
(lp1452
V\u4f86
asV\u51b2
(lp1453
V\u6c96
aV\u6c96
asV\u613d
(lp1454
V\u535a
aV\u535a
asV\u5e43
(lp1455
V\u5e0f
asV\uf9c2
(lp1456
V\u84fc
asV\u3cc4
(lp1457
V\u6d8e
asV\u5047
(lp1458
V\u4eee
asV\u9749
(lp1459
V\u53c6
asV\u894d
(lp1460
V\u96dc
asV\u8555
(lp1461
V\u83b8
asV\u9bd6
(lp1462
V\u9cad
asV\u725b
(lp1463
V\u725c
asV\u9dda
(lp1464
V\u9e68
asV\u97de
(lp1465
V\u97eb
asV\u9a6b
(lp1466
V\u9a89
asV\u85ea
(lp1467
V\u85ae
aV\u7c54
asV\u9c6f
(lp1468
V\u9ce0
asV\u9673
(lp1469
V\u9648
asV\u6ef8
(lp1470
V\u6d52
asV\u9b00
(lp1471
V\u5243
asV\u540a
(lp1472
V\u5f14
asV\u890c
(lp1473
V\u88c8
asV\u4e0e
(lp1474
V\u8207
asV\u8514
(lp1475
V\u83d4
aV\u83d4
asV\ufa16
(lp1476
V\u732a
asV\u539b
(lp1477
V\u5ef3
asV\u761e
(lp1478
V\u7617
asV\u8aa1
(lp1479
V\u8beb
asV\u4fa3
(lp1480
V\u4fb6
asV\u6822
(lp1481
V\u67cf
asV\u6226
(lp1482
V\u6230
asV\u642a
(lp1483
V\u508f
asV\u7daf
(lp1484
V\u7ef9
asV\u9032
(lp1485
V\u8fdb
asV\u8a36
(lp1486
V\u8bc3
aV\u5475
asV\u63bb
(lp1487
V\u6414
asV\u7d44
(lp1488
V\u7ec4
asV\u91c7
(lp1489
V\u91c6
asV\u56c9
(lp1490
V\u5570
aV\u5570
asV\u70dd
(lp1491
V\u84b8
asV\u6ce5
(lp1492
V\u576d
aV\uf9e3
asV\u8d64
(lp1493
V\U0002418d
asV\u8768
(lp1494
V\u8671
aV\u8671
asV\u5beb
(lp1495
V\u51a9
aV\u5199
asV\u98ed
(lp1496
V\u996c
asV\u7e6e
(lp1497
V\u97c1
asV\u92f1
(lp1498
V\u94fd
asV\u57f3
(lp1499
V\u574e
asV\u8ef9
(lp1500
V\u8f75
asV\u6c7a
(lp1501
V\u51b3
aV\u51b3
asV\u45ff
(lp1502
V\U0002725e
asV\u5d84
(lp1503
V\u5dc9
aV\u5d2d
asV\u8e8e
(lp1504
V\u47e2
asV\u9917
(lp1505
V\U0002b5e7
asV\u5e19
(lp1506
V\u88a0
asV\u931b
(lp1507
V\u951b
asV\u8127
(lp1508
V\u6718
asV\u99ac
(lp1509
V\u9a6c
asV\u93b0
(lp1510
V\u9552
asV\u9a41
(lp1511
V\u9a9c
asV\u9c45
(lp1512
V\u9cd9
asV\u5147
(lp1513
V\u51f6
asV\u74ca
(lp1514
V\u743c
asV\u6ece
(lp1515
V\u8365
asV\uf9cf
(lp1516
V\u7d10
asV\u7957
(lp1517
V\u53ea
asV\u9ad6
(lp1518
V\u9acb
asV\u51dc
(lp1519
V\u51db
asV\u96de
(lp1520
V\u9e21
aV\u9dc4
asV\u6f63
(lp1521
V\u6d7c
asV\uf9ec
(lp1522
V\u6eba
asV\u9d6f
(lp1523
V\u9e4e
asV\u5271
(lp1524
V\u528d
asV\u5475
(lp1525
V\u8a36
asV\u75f4
(lp1526
V\u7661
asV\u61fc
(lp1527
V\u60e7
aV\u60e7
asV\u7d81
(lp1528
V\u7ed1
asV\U00029c00
(lp1529
V\U00029b24
asV\u7189
(lp1530
V\U00024236
asV\u530a
(lp1531
V\u63ac
asV\u8214
(lp1532
V\u9902
asV\u5e97
(lp1533
V\u576b
asV\u7d16
(lp1534
V\u7ebc
asV\u979d
(lp1535
V\u7ef1
asV\u6f22
(lp1536
V\u6c49
asV\u81a9
(lp1537
V\u817b
asV\u7cab
(lp1538
V\u7cef
asV\u5e2c
(lp1539
V\u88d9
aV\u88d9
asV\u7aaf
(lp1540
V\u7ab0
aV\u7a91
aV\u7ab0
asV\u9732
(lp1541
V\uf938
asV\u5234
(lp1542
V\u5241
aV\u5241
asV\u64bb
(lp1543
V\u631e
asV\u62bf
(lp1544
V\u3a09
asV\u96c7
(lp1545
V\u50f1
asV\u51c9
(lp1546
V\u6dbc
asV\u8acf
(lp1547
V\u8bf9
asV\u80d3
(lp1548
V\U00026693
asV\u43d5
(lp1549
V\u98ea
asV\uf9d9
(lp1550
V\u6144
asV\u9858
(lp1551
V\u613f
asV\u5b5a
(lp1552
V\u5b75
asV\u965c
(lp1553
V\u72f9
aV\u965d
asV\u6de1
(lp1554
V\u6fb9
aV\u6fb9
asV\u8a64
(lp1555
V\u8b0a
asV\u8068
(lp1556
V\u806f
asV\uf96e
(lp1557
V\u8449
asV\u93f5
(lp1558
V\u94e7
asV\u6b7a
(lp1559
V\u6b79
aV\u6b79
asV\u42ff
(lp1560
V\U00026213
asV\u617e
(lp1561
V\u6b32
aV\u6b32
asV\u3b05
(lp1562
V\u66fc
asV\u9586
(lp1563
V\u95bb
aV\u95eb
asV\u938a
(lp1564
V\u9551
asV\u4e8c
(lp1565
V\u8d30
asV\u898e
(lp1566
V\u89c3
asV\u571d
(lp1567
V\u571e
asV\u769c
(lp1568
V\u66a0
asV\u8823
(lp1569
V\u86ce
asV\u6939
(lp1570
V\u845a
asV\u9d41
(lp1571
V\u4d14
asV\u9149
(lp1572
V\u4e23
asV\u8f4d
(lp1573
V\u8f99
asV\u69ce
(lp1574
V\u6942
asV\u67d2
(lp1575
V\u4e03
aV\u6f06
asV\u9dd6
(lp1576
V\u9e65
asV\u58d8
(lp1577
V\u5792
aV\u5841
asV\u725f
(lp1578
V\u9eb0
asV\u85e6
(lp1579
V\u8611
asV\u5375
(lp1580
V\uf91c
asV\u66fc
(lp1581
V\u3b05
asV\u7089
(lp1582
V\u7210
asV\u520a
(lp1583
V\u520b
aV\u520b
asV\u8f0c
(lp1584
V\u8f1b
asV\u6491
(lp1585
V\u6490
asV\u7a1a
(lp1586
V\u7a49
asV\u969d
(lp1587
V\u5862
asV\u8ca1
(lp1588
V\u34b2
aV\u8d22
asV\u6e22
(lp1589
V\u6ca8
aV\u6ca8
asV\u8aa5
(lp1590
V\u8bf0
asV\u7dab
(lp1591
V\u7dda
asV\u982e
(lp1592
V\u9767
aV\u9892
asV\u6fb7
(lp1593
V\u6f2b
asV\u8a3a
(lp1594
V\u8bca
asV\u7d40
(lp1595
V\u7ecc
asV\u99c3
(lp1596
V\U0002b61d
asV\u50c9
(lp1597
V\u4f65
asV\u81d3
(lp1598
V\u81df
asV\u9958
(lp1599
V\u98e6
aV\U0002b5f4
asV\u975c
(lp1600
V\u9759
asV\u6ae5
(lp1601
V\u6a71
aV\u6ac9
asV\u60e9
(lp1602
V\u61f2
asV\u51f3
(lp1603
V\u6ac8
asV\u7672
(lp1604
V\u7628
aV\u766b
asV\uf903
(lp1605
V\u8cc8
asV\u7707
(lp1606
V\u7df2
asV\u6b0f
(lp1607
V\u6924
asV\uf998
(lp1608
V\u8f26
asV\u779c
(lp1609
V\u4056
asV\u931f
(lp1610
V\u952c
asV\u6ba4
(lp1611
V\u6b87
asV\u7e2d
(lp1612
V\u8935
aV\u7f21
asV\u58ae
(lp1613
V\u5815
asV\u7431
(lp1614
V\u96d5
asV\u56b2
(lp1615
V\u4eb8
asV\u89b8
(lp1616
V\u89b5
asV\U00024aba
(lp1617
V\u3ed8
asV\u9a45
(lp1618
V\u657a
aV\u9a71
asV\U000268ce
(lp1619
V\U000267d7
asV\u7f57
(lp1620
V\u7f85
aV\u56c9
asV\u57dc
(lp1621
V\u91ce
aV\u91ce
asV\u90de
(lp1622
V\u90ce
asV\u8ee2
(lp1623
V\u8f49
asV\u6767
(lp1624
V\u8292
asV\u7fec
(lp1625
V\u7fda
aV\u7fda
asV\u9b6f
(lp1626
V\u9c81
aV\uf939
asV\u5471
(lp1627
V\u54cc
asV\u5275
(lp1628
V\u521b
aV\u5259
asV\uf985
(lp1629
V\u792a
asV\u3487
(lp1630
V\u511b
asV\u9208
(lp1631
V\u949a
asV\u8014
(lp1632
V\u79c4
asV\u5c97
(lp1633
V\u5ca1
asV\uf91a
(lp1634
V\u99f1
asV\u89a5
(lp1635
V\u9766
aV\u89cd
asV\u6726
(lp1636
V\u8499
asV\u78af
(lp1637
V\u7459
aV\u7459
asV\u9b2e
(lp1638
V\u4c17
aV\u9604
asV\u5630
(lp1639
V\u53fd
asV\U00026cb7
(lp1640
V\u849e
asV\u9ac3
(lp1641
V\u8162
asV\u7248
(lp1642
V\u677f
asV\u8ecb
(lp1643
V\u8f67
asV\u88cf
(lp1644
V\u88e1
aV\uf9e9
asV\U00025f56
(lp1645
V\U00025e87
asV\u9a58
(lp1646
V\u9a3e
asV\u36db
(lp1647
V\u5a20
asV\u8e60
(lp1648
V\u8dd6
asV\u8864
(lp1649
V\u8863
asV\u58ef
(lp1650
V\u58ee
asV\u52f3
(lp1651
V\u52db
aV\u52db
asV\u7572
(lp1652
V\u756c
asV\u91f5
(lp1653
V\u9497
asV\u46fb
(lp1654
V\u8a98
asV\ufa03
(lp1655
V\u7cd6
asV\u9d82
(lp1656
V\u9d83
asV\u5288
(lp1657
V\u64d7
asV\u6e0b
(lp1658
V\u6f80
asV\u918a
(lp1659
V\u991f
asV\uf995
(lp1660
V\u79ca
asV\u8b8e
(lp1661
V\u96e0
aV\u4ec7
asV\U0002a115
(lp1662
V\U0002a252
asV\u5b19
(lp1663
V\u5af1
asV\u8a23
(lp1664
V\u8bc0
asV\u382f
(lp1665
V\u4ee5
asV\u5bae
(lp1666
V\u5bab
asV\u55b2
(lp1667
V\u54df
asV\u4fb6
(lp1668
V\u4fa3
aV\u4fa3
asV\u6b39
(lp1669
V\u7317
asV\u84bc
(lp1670
V\u82cd
asV\u9f41
(lp1671
V\U0002a599
asV\u9945
(lp1672
V\u9992
asV\u9349
(lp1673
V\u5319
asV\u6bce
(lp1674
V\u6bcf
asV\u65d2
(lp1675
V\u65c8
asV\u8155
(lp1676
V\U00026675
asV\u765b
(lp1677
V\u765d
asV\u99da
(lp1678
V\U000299eb
asV\u93de
(lp1679
V\u955b
asV\u986f
(lp1680
V\u9855
aV\u663e
aV\u9855
asV\u35f2
(lp1681
V\U00020d7e
asV\u70f4
(lp1682
V\u70c3
asV\u6af8
(lp1683
V\u6989
asV\u64fc
(lp1684
V\u64b8
asV\u807f
(lp1685
V\u8080
asV\u7e81
(lp1686
V\U0002b138
asV\u5c02
(lp1687
V\u5c08
asV\u9904
(lp1688
V\u9978
asV\u5606
(lp1689
V\u6b4e
aV\u53f9
asV\u9308
(lp1690
V\u9529
asV\u6c8d
(lp1691
V\u51b1
aV\u51b1
asV\u5d97
(lp1692
V\u5d02
asV\U00027e16
(lp1693
V\u8d03
asV\u579b
(lp1694
V\u579c
aV\u579c
asV\u8ea1
(lp1695
V\u8e51
asV\U000288a5
(lp1696
V\u490d
asV\u602a
(lp1697
V\u6060
asV\u5d2c
(lp1698
V\u5cbd
asV\uf9af
(lp1699
V\u7f9a
asV\u9a2e
(lp1700
V\u9a9d
asV\u73b3
(lp1701
V\u7447
asV\u9432
(lp1702
V\u956f
asV\u5ec1
(lp1703
V\u53a0
aV\u5395
asV\uf944
(lp1704
V\u7c60
asV\u95c7
(lp1705
V\u6697
asV\u83d3
(lp1706
V\u679c
asV\u9b58
(lp1707
V\u9b47
asV\u585a
(lp1708
V\ufa10
asV\u68e5
(lp1709
V\u6a0a
asV\u8964
(lp1710
V\u8934
aV\uf924
asV\u406a
(lp1711
V\U000251e2
asV\u96f1
(lp1712
V\u9736
asV\u7472
(lp1713
V\u73b1
asV\u90f5
(lp1714
V\u90ae
asV\u84fd
(lp1715
V\u835c
asV\u5f80
(lp1716
V\u5f83
aV\u5f83
asV\u9686
(lp1717
V\uf9dc
asV\u908a
(lp1718
V\u8fb9
aV\u8fb9
asV\u690f
(lp1719
V\u6860
asV\u4194
(lp1720
V\u7ac9
asV\u9d17
(lp1721
V\U0002b061
asV\u541d
(lp1722
V\uf9ed
asV\u4e21
(lp1723
V\u5169
asV\u6fa0
(lp1724
V\u6e11
asV\u9dac
(lp1725
V\u9e27
asV\u54b2
(lp1726
V\u7b11
aV\u7b11
asV\u91b4
(lp1727
V\uf9b7
asV\u6a39
(lp1728
V\u6811
asV\u5b43
(lp1729
V\u5a18
aV\u5a18
asV\u9249
(lp1730
V\u94c9
asV\u4f4b
(lp1731
V\u7d39
asV\u70ca
(lp1732
V\u716c
asV\u64d2
(lp1733
V\u6366
asV\u5bd8
(lp1734
V\u7f6e
aV\u7f6e
asV\u345d
(lp1735
V\U00022671
asV\u4fe0
(lp1736
V\u4fa0
asV\u8ce2
(lp1737
V\u8d12
aV\u8d24
asV\u5c6d
(lp1738
V\u5c53
asV\u7dec
(lp1739
V\u7f05
asV\u5075
(lp1740
V\u4fa6
asV\u71f4
(lp1741
V\u70e9
asV\u817f
(lp1742
V\u9abd
asV\u6302
(lp1743
V\u639b
asV\u8a87
(lp1744
V\u5938
aV\u5938
asV\u6f0a
(lp1745
V\u6e87
aV\u6e87
asV\u750e
(lp1746
V\u78da
asV\U0002a599
(lp1747
V\u9f41
asV\u74a3
(lp1748
V\u7391
asV\u9c28
(lp1749
V\u9cce
asV\u40ab
(lp1750
V\u592f
asV\uf906
(lp1751
V\u53e5
asV\u6830
(lp1752
V\u7b4f
asV\u8fb5
(lp1753
V\u8fb6
asV\u6e34
(lp1754
V\u6e07
asV\u95b9
(lp1755
V\u5266
aV\u9609
asV\u58bb
(lp1756
V\u7246
asV\u5ebf
(lp1757
V\u5edf
asV\u61c1
(lp1758
V\u6081
asV\u73cd
(lp1759
V\u73ce
aV\u73ce
asV\uf9d1
(lp1760
V\u516d
asV\u5850
(lp1761
V\u5851
asV\u8edf
(lp1762
V\u8f2d
aV\u8f6f
asV\u51e1
(lp1763
V\u51e2
asV\U000294e3
(lp1764
V\U00029595
asV\uf966
(lp1765
V\u5fa9
asV\u7f6a
(lp1766
V\u8fa0
aV\u8fa0
asV\u8e74
(lp1767
V\u8e75
asV\u72f7
(lp1768
V\u7367
asV\u5176
(lp1769
V\u4e0c
asV\u78fb
(lp1770
V\uf964
asV\u3bfd
(lp1771
V\u6ab3
asV\u7eff
(lp1772
V\u7da0
asV\u6c88
(lp1773
V\u6c89
asV\u500b
(lp1774
V\u4e2a
asV\u9911
(lp1775
V\u997d
asV\u5c13
(lp1776
V\u723e
asV\u9f15
(lp1777
V\u51ac
asV\u6519
(lp1778
V\u6400
asV\u6b1d
(lp1779
V\u9b31
aV\u9b31
asV\u7121
(lp1780
V\u65e0
asV\u93a2
(lp1781
V\u94a8
asV\u7725
(lp1782
V\u7726
aV\u7726
asV\u5ca8
(lp1783
V\u7820
asV\u6bb2
(lp1784
V\u6b7c
asV\u9237
(lp1785
V\u94b4
asV\u983b
(lp1786
V\u9891
asV\u7dbe
(lp1787
V\u7eeb
asV\u6443
(lp1788
V\u625b
asV\u86c4
(lp1789
V\u86cc
asV\u6a47
(lp1790
V\u97bd
aV\u9792
asV\u8cc8
(lp1791
V\u8d3e
asV\u4fca
(lp1792
V\u5101
asV\u92cc
(lp1793
V\u94e4
asV\u55ce
(lp1794
V\u5417
asV\u76e4
(lp1795
V\u76d8
asV\U00029d69
(lp1796
V\U00029f7a
asV\u7ce8
(lp1797
V\u7ce1
asV\u918b
(lp1798
V\u9162
asV\u528d
(lp1799
V\u5292
aV\u5251
asV\u978f
(lp1800
V\u5de9
asV\u740e
(lp1801
V\u74a1
asV\u9d93
(lp1802
V\u9e4b
asV\ufa12
(lp1803
V\u6674
asV\u6397
(lp1804
V\u631c
asV\u699b
(lp1805
V\u4eb2
asV\u461a
(lp1806
V\u5352
asV\u75a3
(lp1807
V\u80ac
asV\u5826
(lp1808
V\u968e
aV\u968e
asV\u9d28
(lp1809
V\u9e2d
asV\u82ad
(lp1810
V\u5df4
asV\u6930
(lp1811
V\u3b68
asV\u53b7
(lp1812
V\u80b1
asV\u9abd
(lp1813
V\u817f
asV\u66c5
(lp1814
V\u66c4
asV\u8846
(lp1815
V\u773e
asV\u6cc9
(lp1816
V\u6d24
asV\U000272cd
(lp1817
V\u8707
asV\u534c
(lp1818
V\U0002098c
asV\u78d1
(lp1819
V\u7859
asV\u5950
(lp1820
V\u5942
asV\u9a52
(lp1821
V\u9a28
asV\u665a
(lp1822
V\u6669
asV\u7262
(lp1823
V\uf946
asV\u9be7
(lp1824
V\u4c7d
aV\u9cb3
asV\u5ce9
(lp1825
V\u5ce8
aV\u5ce8
asV\u61eb
(lp1826
V\u61e5
asV\u7e6a
(lp1827
V\u7ed8
aV\u7f0b
asV\u6df3
(lp1828
V\u6e7b
asV\u73f7
(lp1829
V\u7894
asV\u79fb
(lp1830
V\u8ffb
asV\u8001
(lp1831
V\u8002
asV\u8c09
(lp1832
V\u8b85
asV\u920d
(lp1833
V\u949d
asV\u570f
(lp1834
V\u5708
asV\u9811
(lp1835
V\u987d
asV\uf990
(lp1836
V\u6200
asV\u9e15
(lp1837
V\u9e2c
asV\u8c9e
(lp1838
V\u8d1e
asV\u812b
(lp1839
V\u8131
asV\u9eaa
(lp1840
V\u9eb5
aV\u9eb5
asV\u4831
(lp1841
V\u8e85
asV\u5439
(lp1842
V\u9fa1
asV\u993b
(lp1843
V\u7cd5
asV\u76ba
(lp1844
V\u7e10
aV\u76b1
asV\u7cbe
(lp1845
V\ufa1d
asV\u6543
(lp1846
V\u668b
asV\u87c4
(lp1847
V\u86f0
asV\u93cc
(lp1848
V\u9546
asV\u774f
(lp1849
V\u56f0
aV\u56f0
asV\u99d0
(lp1850
V\u9a7b
asV\u65d8
(lp1851
V\u5e5f
asV\u9061
(lp1852
V\u6eaf
asV\u5563
(lp1853
V\u3605
asV\u9665
(lp1854
V\u9677
asV\u7de8
(lp1855
V\u7f16
asV\u84ee
(lp1856
V\u83b2
asV\u7a7d
(lp1857
V\u9631
aV\u9631
asV\u9cfe
(lp1858
V\u4d13
asV\u8683
(lp1859
V\u8801
asV\u4f89
(lp1860
V\u8a87
asV\u770e
(lp1861
V\u8996
asV\u9e93
(lp1862
V\u68ba
asV\u7912
(lp1863
V\U0002541f
asV\u4316
(lp1864
V\U0002621c
asV\u6a9b
(lp1865
V\u7c3b
asV\u9220
(lp1866
V\U00028c41
asV\u5d2a
(lp1867
V\u5d12
asV\u6c34
(lp1868
V\u6c35
asV\u50b7
(lp1869
V\u4f24
asV\u97b9
(lp1870
V\u979f
asV\u65c5
(lp1871
V\uf983
asV\u4e48
(lp1872
V\u5e7a
asV\u9952
(lp1873
V\u9976
asV\u80d7
(lp1874
V\u75b9
asV\u8adb
(lp1875
V\u8c00
asV\u655a
(lp1876
V\u6553
asV\u8cdf
(lp1877
V\U00027e56
asV\u53e1
(lp1878
V\u777f
aV\u777f
asV\u96e3
(lp1879
V\u96be
aV\u96be
asV\u7162
(lp1880
V\u8315
asV\u7b66
(lp1881
V\u7ba1
asV\u7d6a
(lp1882
V\u6c24
asV\u64ef
(lp1883
V\u6448
asV\U00022bf1
(lp1884
V\u641c
asV\u8a70
(lp1885
V\u8bd8
asV\u8c74
(lp1886
V\u8e62
asV\u9678
(lp1887
V\u9646
asV\U000298be
(lp1888
V\U000299ee
asV\u8f09
(lp1889
V\u8f7d
asV\u6e88
(lp1890
V\u6ca9
aV\u6f59
asV\u520b
(lp1891
V\u520a
aV\u520a
asV\u540f
(lp1892
V\uf9de
asV\u9d15
(lp1893
V\u9e35
asV\u8396
(lp1894
V\u830e
asV\u6719
(lp1895
V\u660e
asV\U00027525
(lp1896
V\U000274ad
asV\u54a4
(lp1897
V\u5412
asV\u9ba6
(lp1898
V\u9c96
asV\u9daa
(lp1899
V\u4d17
asV\u69b2
(lp1900
V\u6985
asV\u9037
(lp1901
V\u9016
asV\u6643
(lp1902
V\u6644
asV\u724b
(lp1903
V\u7b8b
aV\u7b8b
asV\u7e53
(lp1904
V\U0002621b
asV\u895d
(lp1905
V\u895c
aV\u88e3
asV\u9f69
(lp1906
V\u54ac
aV\u54ac
asV\u616d
(lp1907
V\u6196
asV\u87ee
(lp1908
V\u87fa
asV\u6b71
(lp1909
V\u8e35
asV\u7779
(lp1910
V\u89a9
asV\uf97d
(lp1911
V\u8ad2
asV\u58fc
(lp1912
V\u58f8
asV\u8987
(lp1913
V\u9738
aV\u9738
asV\u4e89
(lp1914
V\u722d
asV\u938b
(lp1915
V\u8f44
asV\u6c0a
(lp1916
V\u6c08
asV\u958f
(lp1917
V\u95f0
asV\u9f93
(lp1918
V\u4a8a
asV\u7812
(lp1919
V\u78c7
asV\u3d14
(lp1920
V\u6f5d
asV\u8718
(lp1921
V\u9f05
asV\u9320
(lp1922
V\u952d
asV\uf9a7
(lp1923
V\u7375
asV\u5c2a
(lp1924
V\u5c2b
asV\u612c
(lp1925
V\u8a34
aV\u8a34
asV\u6d34
(lp1926
V\u6cd9
asV\u51b7
(lp1927
V\uf92e
asV\u5bbb
(lp1928
V\u5bc6
aV\u5bc6
asV\u793c
(lp1929
V\ufa18
asV\u8a46
(lp1930
V\u8bcb
asV\u4f48
(lp1931
V\u5e03
asV\u8c4a
(lp1932
V\u8c50
asV\u514c
(lp1933
V\u5151
aV\u5151
asV\u5b50
(lp1934
V\u53ea
asV\u9852
(lp1935
V\u9899
asV\u7cd5
(lp1936
V\u993b
asV\u81d7
(lp1937
V\U00023391
asV\u6e5e
(lp1938
V\u6d48
asV\u99e7
(lp1939
V\U000299f2
asV\u5ee9
(lp1940
V\u5eea
aV\u7a1f
asV\u63eb
(lp1941
V\u63ea
asV\u7c6a
(lp1942
V\u7c16
asV\u65ef
(lp1943
V\u65ed
asV\u8b70
(lp1944
V\u8bae
asV\u6ff3
(lp1945
V\u6f5b
asV\u71f7
(lp1946
V\u71e3
asV\u5e7e
(lp1947
V\u51e0
asV\u8405
(lp1948
V\u6625
asV\u6f88
(lp1949
V\u5fb9
asV\u530b
(lp1950
V\u9676
asV\u718c
(lp1951
V\U000241c4
asV\u9c15
(lp1952
V\u8766
asV\U00027d94
(lp1953
V\U00027e53
asV\u681d
(lp1954
V\u6a9c
asV\u53a0
(lp1955
V\u5ec1
aV\u5ec1
asV\u90a2
(lp1956
V\u90c9
asV\u5fa8
(lp1957
V\u9051
asV\u8f33
(lp1958
V\u8f8f
asV\u68b2
(lp1959
V\u68f3
aV\u68c1
asV\u9137
(lp1960
V\u9146
asV\u9b3b
(lp1961
V\u7ca5
asV\u9d3f
(lp1962
V\u9e3d
asV\u83c0
(lp1963
V\u82d1
asV\u91cc
(lp1964
V\u88cf
asV\u9dd4
(lp1965
V\U0002a251
asV\u885d
(lp1966
V\U00027602
aV\u51b2
asV\u69dc
(lp1967
V\u6a87
asV\u9465
(lp1968
V\u9565
asV\u5967
(lp1969
V\u5965
asV\u92f6
(lp1970
V\u950d
asV\u6702
(lp1971
V\u52d7
asV\u6b0a
(lp1972
V\u6743
aV\u6a29
asV\u9893
(lp1973
V\u9839
asV\u6697
(lp1974
V\u667b
asV\u8018
(lp1975
V\u79d0
aV\u79d0
asV\u6a9f
(lp1976
V\u698e
aV\u69da
asV\u9420
(lp1977
V\u9568
asV\u5722
(lp1978
V\u753a
asV\u5b2a
(lp1979
V\u5ad4
asV\u662c
(lp1980
V\u660f
asV\u5abf
(lp1981
V\u6127
aV\u6127
asV\u63c5
(lp1982
V\u7814
asV\u8b4a
(lp1983
V\U0002b362
asV\u7dd1
(lp1984
V\u7da0
asV\u9f52
(lp1985
V\u9f7f
aV\u6b6f
asV\u86d7
(lp1986
V\U00027313
asV\u8cdb
(lp1987
V\u8d0a
aV\u8d0a
asV\u53e5
(lp1988
V\uf906
asV\u7d66
(lp1989
V\u7ed9
asV\u62ef
(lp1990
V\u628d
asV\u68f3
(lp1991
V\u68b2
asV\u9078
(lp1992
V\u9009
asV\u7cfb
(lp1993
V\u7e6b
asV\u9e7c
(lp1994
V\u7877
aV\u7877
asV\u7aff
(lp1995
V\U0002353c
asV\u8305
(lp1996
V\u6cd6
asV\U00026888
(lp1997
V\U00023368
asV\u970d
(lp1998
V\u7668
asV\u4e9c
(lp1999
V\u4e9e
asV\uf929
(lp2000
V\u6717
asV\u9baa
(lp2001
V\u9c94
asV\u61ae
(lp2002
V\u6003
asV\U00023f7d
(lp2003
V\u6f78
asV\u9c3b
(lp2004
V\u9cd7
asV\U00025f3d
(lp2005
V\U00025e65
asV\uf9be
(lp2006
V\u6599
asV\u84c0
(lp2007
V\u836a
asV\u744b
(lp2008
V\u73ae
asV\u9ad4
(lp2009
V\u4f53
aV\u4f53
asV\u8f5d
(lp2010
V\u8f3f
asV\u9365
(lp2011
V\u9532
asV\u4af4
(lp2012
V\U00029597
asV\u93fa
(lp2013
V\u497d
asV\u5efc
(lp2014
V\u4e43
asV\u8183
(lp2015
V\u817d
asV\u6602
(lp2016
V\u663b
asV\u958b
(lp2017
V\u5f00
asV\u6a0a
(lp2018
V\u68e5
asV\u938f
(lp2019
V\u93d0
asV\u9993
(lp2020
V\u7ce4
asV\u6797
(lp2021
V\uf9f4
asV\u8f1c
(lp2022
V\u8f8e
asV\u5c26
(lp2023
V\u5c25
asV\u9928
(lp2024
V\u8218
aV\u9986
aV\ufa2c
asV\u672c
(lp2025
V\u5932
asV\u49b3
(lp2026
V\U00028dff
asV\u9ebd
(lp2027
V\u4e48
aV\u9ebc
asV\u5bbf
(lp2028
V\u375b
asV\u64c1
(lp2029
V\u62e5
asV\u62c5
(lp2030
V\u64d4
asV\u8c46
(lp2031
V\u8373
asV\u76cd
(lp2032
V\u76c7
aV\u76c7
asV\u574c
(lp2033
V\u574b
asV\u904e
(lp2034
V\u8fc7
aV\u8fc7
asV\u5d50
(lp2035
V\u5c9a
aV\uf921
asV\u4edd
(lp2036
V\u540c
aV\u540c
asV\u54e1
(lp2037
V\u5458
asV\u91e3
(lp2038
V\u9493
asV\u7662
(lp2039
V\u75d2
aV\u75d2
asV\u58e9
(lp2040
V\u57bb
aV\u575d
asV\u63ef
(lp2041
V\u6404
asV\u8d70
(lp2042
V\u8d71
asV\u69f3
(lp2043
V\u6868
asV\u8b74
(lp2044
V\u8c34
asV\u7dfb
(lp2045
V\u81f4
asV\u4103
(lp2046
V\u6b83
asV\u6384
(lp2047
V\u62a1
asV\u530f
(lp2048
V\u74df
asV\u7d90
(lp2049
V\u433c
asV\u889e
(lp2050
V\u886e
aV\u886e
asV\u53a4
(lp2051
V\u66c6
asV\u8933
(lp2052
V\u88e2
asV\u5039
(lp2053
V\u5109
asV\u9d3b
(lp2054
V\u9e3f
asV\u97cc
(lp2055
V\u97e7
asV\uf953
(lp2056
V\u808b
asV\u9bd4
(lp2057
V\u9cbb
asV\u6fdc
(lp2058
V\u6d55
aV\u6d55
asV\uf9e8
(lp2059
V\u88cf
asV\u80ee
(lp2060
V\u80a8
asV\u8ef2
(lp2061
V\u8f71
asV\u7e7d
(lp2062
V\u7f24
asV\u5ffc
(lp2063
V\u6177
asV\u98fe
(lp2064
V\u9919
aV\u9970
asV\U0002a600
(lp2065
V\U0002a68f
asV\u6f06
(lp2066
V\u67d2
asV\u968b
(lp2067
V\u964f
asV\u908f
(lp2068
V\u903b
aV\uf913
asV\u5f91
(lp2069
V\u4fd3
aV\u5f84
asV\u8218
(lp2070
V\u9928
aV\u9928
asV\u689f
(lp2071
V\u9d1e
aV\u67ad
asV\u4b1e
(lp2072
V\U00029667
asV\u7ca7
(lp2073
V\u599d
asV\u5f26
(lp2074
V\u7d43
aV\u7d43
asV\u9a28
(lp2075
V\u9a52
asV\u642c
(lp2076
V\u642b
asV\u6e30
(lp2077
V\u6df9
asV\u89b5
(lp2078
V\u89b8
asV\u54b7
(lp2079
V\u5555
asV\u5ebb
(lp2080
V\u5eb6
asV\u9dbd
(lp2081
V\u96bc
asV\u67c1
(lp2082
V\u8235
asV\u8f46
(lp2083
V\u6a1a
aV\u8f98
asV\u544c
(lp2084
V\u53eb
asV\u9d52
(lp2085
V\u9e46
asV\u79d5
(lp2086
V\u7c83
asV\u5854
(lp2087
V\u5896
asV\u8edb
(lp2088
V\u8f6d
asV\u615a
(lp2089
V\u6159
aV\u60ed
asV\u57e1
(lp2090
V\u57ad
asV\u92e3
(lp2091
V\u94d8
asV\u7562
(lp2092
V\u6bd5
asV\u9ce7
(lp2093
V\u51eb
asV\u5be9
(lp2094
V\u5ba1
asV\uf96a
(lp2095
V\u7d22
asV\u846c
(lp2096
V\u585f
aV\u585f
asV\u6af3
(lp2097
V\u3c0d
aV\u680a
asV\u74f7
(lp2098
V\u78c1
aV\u7506
asV\u9278
(lp2099
V\u94f0
asV\u5b7e
(lp2100
V\u5b30
asV\u8105
(lp2101
V\u8107
aV\u80c1
asV\u500f
(lp2102
V\u5010
asV\u9915
(lp2103
V\u9982
asV\u7894
(lp2104
V\u73f7
asV\u6319
(lp2105
V\u8209
asV\u819a
(lp2106
V\u80a4
asV\u8b9e
(lp2107
V\u8c33
asV\u56a0
(lp2108
V\u700f
asV\u95a2
(lp2109
V\u95dc
asV\u50a4
(lp2110
V\u510e
asV\u4f31
(lp2111
V\u4f60
asV\u8a33
(lp2112
V\u8b6f
asV\u77b6
(lp2113
V\u7786
asV\u5339
(lp2114
V\u758b
aV\u758b
asV\u71ba
(lp2115
V\u71b9
asV\u7bbe
(lp2116
V\u7c2b
asV\u80c4
(lp2117
V\u5191
asV\u6c47
(lp2118
V\u5f59
asV\u53ce
(lp2119
V\u6536
aV\u6536
asV\u5dd2
(lp2120
V\u5ce6
asV\u8d5d
(lp2121
V\u8d0b
asV\u5263
(lp2122
V\u528d
asV\U00028df2
(lp2123
V\U00028e0e
asV\u6975
(lp2124
V\u6781
asV\u52f8
(lp2125
V\u529d
aV\u529d
aV\u52e7
asV\u91fa
(lp2126
V\u948e
asV\u387f
(lp2127
V\u65a5
asV\uf957
(lp2128
V\u7dbe
asV\u9b93
(lp2129
V\u9c8a
asV\u7c12
(lp2130
V\u7be1
asV\u8318
(lp2131
V\u8354
asV\u6f9b
(lp2132
V\u7002
asV\u8d1c
(lp2133
V\u8d13
asV\U00027da7
(lp2134
V\u478e
asV\u9b28
(lp2135
V\u95a7
aV\u54c4
asV\u84ad
(lp2136
V\u82bb
asV\u652c
(lp2137
V\u63fd
asV\u8eb1
(lp2138
V\u8eb2
aV\u8eb2
asV\u6f30
(lp2139
V\u6ddc
asV\u4bb3
(lp2140
V\U00029a0f
asV\u88b5
(lp2141
V\u887d
asV\u92b9
(lp2142
V\u93fd
aV\u93fd
asV\u7d3c
(lp2143
V\u7ecb
asV\u6ac9
(lp2144
V\u6ae5
asV\u5f50
(lp2145
V\u5f51
aV\u5f51
asV\u9c52
(lp2146
V\u9cdf
asV\u5954
(lp2147
V\u7287
aV\u7287
asV\u42d9
(lp2148
V\u433a
asV\u50e5
(lp2149
V\u4fa5
aV\u5fba
asV\u7e66
(lp2150
V\u7e48
asV\u3b68
(lp2151
V\u6930
asV\u8974
(lp2152
V\u8955
aV\u5e71
asV\u7ffb
(lp2153
V\u7e59
asV\uf9ff
(lp2154
V\u523a
asV\u5a7e
(lp2155
V\u5aae
asV\u6780
(lp2156
V\u677e
asV\u570b
(lp2157
V\u56ef
aV\u56fd
aV\u5700
asV\u940d
(lp2158
V\U0002b50e
asV\u3c92
(lp2159
V\u52fd
asV\uf994
(lp2160
V\u7489
asV\u8a9e
(lp2161
V\u8bed
asV\u7621
(lp2162
V\u75ae
asV\u57a0
(lp2163
V\u573b
asV\u51a4
(lp2164
V\u5bc3
aV\u5bc3
asV\u872b
(lp2165
V\u45b5
asV\u4e31
(lp2166
V\u535d
asV\u8b33
(lp2167
V\u8bb4
asV\u6cb2
(lp2168
V\u6cb1
aV\u6cb1
asV\u70ba
(lp2169
V\u7232
aV\u4e3a
aV\u7232
asV\u5c3d
(lp2170
V\u76e1
aV\u76e1
asV\u993f
(lp2171
V\u998a
asV\u87c0
(lp2172
V\u8736
asV\u95cc
(lp2173
V\u9611
asV\u9fd0
(lp2174
V\u4ca4
asV\u5cd2
(lp2175
V\u6d1e
asV\u99d4
(lp2176
V\u9a75
asV\u8259
(lp2177
V\u8231
asV\u4f5b
(lp2178
V\u4ecf
asV\u8c5d
(lp2179
V\u7f93
asV\u6ddc
(lp2180
V\u6f30
asV\u9661
(lp2181
V\u9627
asV\u9a69
(lp2182
V\u6b61
asV\u646d
(lp2183
V\u62d3
asV\u96f6
(lp2184
V\uf9b2
asV\uf9aa
(lp2185
V\u5be7
asV\u4f85
(lp2186
V\u8cc5
asV\u5b8d
(lp2187
V\u8089
asV\u5191
(lp2188
V\u80c4
asV\u8c18
(lp2189
V\u54a8
asV\u609b
(lp2190
V\u6042
asV\u4f1a
(lp2191
V\u6703
asV\u5b22
(lp2192
V\u5a18
asV\u72a7
(lp2193
V\u727a
asV\u9428
(lp2194
V\u9544
asV\u4eaf
(lp2195
V\u4eab
asV\U00028db2
(lp2196
V\U00028e0b
asV\u87b5
(lp2197
V\u8731
asV\u9db9
(lp2198
V\u9e60
asV\u50bb
(lp2199
V\u510d
asV\u723c
(lp2200
V\u4fce
asV\u353e
(lp2201
V\u5369
asV\u8ad7
(lp2202
V\u8c02
asV\u55e9
(lp2203
V\u5522
asV\u8a6c
(lp2204
V\u8a3d
aV\u8bdf
asV\u6eef
(lp2205
V\u6ede
asV\u8070
(lp2206
V\u8066
aV\u806a
aV\u8061
asV\u5976
(lp2207
V\u5b2d
asV\u9c78
(lp2208
V\u9c88
asV\u8f05
(lp2209
V\u8f82
asV\u4207
(lp2210
V\u7f69
asV\u6488
(lp2211
V\u635e
asV\u9b0d
(lp2212
V\u80e1
asV\u7a8c
(lp2213
V\u7a96
asV\u8996
(lp2214
V\u770e
aV\u89c6
asV\u429c
(lp2215
V\u7cf0
asV\u7921
(lp2216
V\u7934
asV\u54a8
(lp2217
V\u8c18
asV\u63b2
(lp2218
V\u63ed
asV\u9a37
(lp2219
V\u9a9a
asV\uf9b6
(lp2220
V\u79ae
asV\u8ec4
(lp2221
V\u8077
asV\u6247
(lp2222
V\u717d
asV\u9acc
(lp2223
V\u81cf
asV\u7e4f
(lp2224
V\U0002621d
asV\U00023755
(lp2225
V\U00023637
asV\u835d
(lp2226
V\u8434
asV\u62dc
(lp2227
V\u62dd
asV\u78e0
(lp2228
V\u7875
asV\u99f6
(lp2229
V\U000299fa
asV\u7d79
(lp2230
V\u7ee2
asV\u6a02
(lp2231
V\u4e50
aV\uf914
asV\u5a8d
(lp2232
V\u5a66
asV\u5091
(lp2233
V\u6770
aV\u6770
asV\u9593
(lp2234
V\u95f4
asV\u5695
(lp2235
V\u565c
asV\u9920
(lp2236
V\u9905
aV\u9905
asV\u7da3
(lp2237
V\u7efb
asV\u8aad
(lp2238
V\u8b80
asV\u6b2c
(lp2239
V\u54b3
asV\u80b1
(lp2240
V\u53b7
asV\u6734
(lp2241
V\u6a38
asV\u3836
(lp2242
V\u5e06
asV\u4940
(lp2243
V\u6375
asV\u6ec5
(lp2244
V\u70d5
aV\u706d
asV\u8046
(lp2245
V\uf9b0
asV\u5b4c
(lp2246
V\u5a08
asV\u5150
(lp2247
V\u5152
asV\U00020bd7
(lp2248
V\u5482
asV\u7a62
(lp2249
V\u79fd
asV\u4272
(lp2250
V\U00025b9c
asV\u8774
(lp2251
V\u80e1
asV\u71fb
(lp2252
V\u718f
aV\u718f
asV\u5e7a
(lp2253
V\u4e48
aV\u4e48
asV\u8801
(lp2254
V\u8683
aV\u8683
asV\u6f84
(lp2255
V\u6f82
asV\U0002a086
(lp2256
V\U0002a24e
asV\u6588
(lp2257
V\u5b78
aV\u5b78
asV\u9a0d
(lp2258
V\u9a92
asV\u8896
(lp2259
V\u890e
asV\u8e9a
(lp2260
V\u8e6e
aV\u8df9
asV\u621d
(lp2261
V\u8cca
asV\u849e
(lp2262
V\u8385
asV\u5fa4
(lp2263
V\u5065
asV\u55a8
(lp2264
V\u54f4
asV\u96aa
(lp2265
V\u9669
asV\u8f2f
(lp2266
V\u8f91
asV\u89c0
(lp2267
V\u898c
aV\u89c2
aV\u898c
asV\uf94b
(lp2268
V\u5c62
asV\u91d0
(lp2269
V\u5398
aV\u5398
asV\u52d2
(lp2270
V\uf952
asV\u63dc
(lp2271
V\u63a9
asV\uf9e0
(lp2272
V\u6613
asV\u5367
(lp2273
V\u81e5
asV\u8cee
(lp2274
V\u8d10
asV\U00026675
(lp2275
V\u8155
asV\u727d
(lp2276
V\u7275
asV\U000214fe
(lp2277
V\U000212c0
asV\u8087
(lp2278
V\u8088
asV\u6306
(lp2279
V\u6305
asV\u598d
(lp2280
V\u59f8
asV\U00026085
(lp2281
V\U00026212
asV\u649f
(lp2282
V\u5b0c
aV\u6322
asV\u9a20
(lp2283
V\U0002b628
asV\u5922
(lp2284
V\u68a6
asV\u9c24
(lp2285
V\U0002b695
asV\uf9b0
(lp2286
V\u8046
asV\u9628
(lp2287
V\u9638
aV\u5384
asV\u6230
(lp2288
V\u6218
aV\u6226
asV\u54bf
(lp2289
V\u541a
asV\u8346
(lp2290
V\u834a
asV\u854a
(lp2291
V\u854b
aV\u8602
asV\uf9cd
(lp2292
V\u7559
asV\u9f4e
(lp2293
V\u8ceb
aV\u8d4d
asV\u6d5a
(lp2294
V\u6fec
aV\u6fec
asV\U0002893b
(lp2295
V\U00028930
asV\u5be1
(lp2296
V\u95dc
asV\uf962
(lp2297
V\u7570
asV\u6aeb
(lp2298
V\u6a65
asV\u756a
(lp2299
V\u8e6f
asV\u66f3
(lp2300
V\u66f5
asV\u5b76
(lp2301
V\u5b73
asV\u9e78
(lp2302
V\u9e7c
asV\u72fb
(lp2303
V\u475c
asV\u907c
(lp2304
V\u8fbd
aV\uf9c3
asV\u8b01
(lp2305
V\u8c12
asV\u4e03
(lp2306
V\u67d2
asV\u8d05
(lp2307
V\u8d58
asV\u6688
(lp2308
V\u6655
asV\u788c
(lp2309
V\uf93b
asV\u5613
(lp2310
V\u556f
aV\u556f
asV\u8b96
(lp2311
V\u8c36
asV\u4e98
(lp2312
V\u4e99
asV\u879e
(lp2313
V\u8682
asV\U000299a2
(lp2314
V\u865e
asV\u7d25
(lp2315
V\u7d2e
aV\u7d2e
asV\u93a6
(lp2316
V\u954f
asV\u56a8
(lp2317
V\u5499
asV\u6fae
(lp2318
V\u6d4d
asV\u61b2
(lp2319
V\u5baa
asV\u9837
(lp2320
V\u9894
asV\u7dba
(lp2321
V\u7eee
asV\u943f
(lp2322
V\u9571
asV\u8cc4
(lp2323
V\u8d3f
asV\u5e63
(lp2324
V\u5e01
asV\u7ce4
(lp2325
V\u994a
aV\u9993
asV\u696d
(lp2326
V\u4e1a
asV\U00028ad2
(lp2327
V\U00028c50
asV\u6575
(lp2328
V\u654c
asV\u9bf6
(lp2329
V\U00029f7c
asV\u7f79
(lp2330
V\uf9e6
asV\u5ef8
(lp2331
V\u8fea
aV\u8fea
asV\u9dfa
(lp2332
V\u9e6d
aV\uf93a
asV\u717d
(lp2333
V\u6427
asV\u9b8b
(lp2334
V\u9c89
asV\u588d
(lp2335
V\u5848
asV\u9d8f
(lp2336
V\u96de
asV\u7e0e
(lp2337
V\U00026214
asV\u5291
(lp2338
V\u5242
aV\u5264
asV\u7012
(lp2339
V\u6f80
asV\u639b
(lp2340
V\u6302
aV\u6302
asV\u7fa3
(lp2341
V\u7fa4
aV\u7fa4
asV\u5226
(lp2342
V\u52ab
asV\u4bab
(lp2343
V\U00029a07
asV\u82b1
(lp2344
V\u8624
asV\u6534
(lp2345
V\u6535
aV\u64b2
asV\u713c
(lp2346
V\u71d2
asV\u55bf
(lp2347
V\u566a
asV\u4b40
(lp2348
V\U00029807
asV\u8842
(lp2349
V\u8844
asV\u66c9
(lp2350
V\u6653
aV\u6681
asV\u594c
(lp2351
V\u9ede
asV\u5350
(lp2352
V\u534d
aV\u534d
asV\u74d5
(lp2353
V\U00024980
asV\u5554
(lp2354
V\u5553
asV\u4ed9
(lp2355
V\u50ca
aV\u50ca
asV\u6c5a
(lp2356
V\u6c59
asV\u85df
(lp2357
V\u863d
asV\u91e7
(lp2358
V\u948f
asV\u7266
(lp2359
V\u729b
asV\u746a
(lp2360
V\u739b
asV\U000228ed
(lp2361
V\U0002261e
asV\u896c
(lp2362
V\u4653
asV\u67f3
(lp2363
V\u6a89
asV\u8574
(lp2364
V\u860a
asV\uf9f7
(lp2365
V\u7acb
asV\u8a01
(lp2366
V\u8ba0
asV\u6b80
(lp2367
V\u592d
asV\u4f03
(lp2368
V\u59a4
asV\u5b0b
(lp2369
V\u5a75
asV\uf98c
(lp2370
V\u6b77
asV\u9211
(lp2371
V\u94a3
asV\U00029919
(lp2372
V\U00029a06
asV\u5713
(lp2373
V\u5706
aV\u570e
asV\u6e19
(lp2374
V\u6da3
asV\u92a6
(lp2375
V\u94df
asV\u8b2b
(lp2376
V\u8b81
aV\u8c2a
asV\U00027d73
(lp2377
V\u478c
asV\u6eae
(lp2378
V\u6d49
asV\u9937
(lp2379
V\u9987
asV\u7ab6
(lp2380
V\u5be0
aV\u7aad
asV\u87c8
(lp2381
V\u8748
asV\u7b4b
(lp2382
V\u89d4
asV\u7d4f
(lp2383
V\u7d32
asV\u93d0
(lp2384
V\u938f
aV\u9560
asV\u95d4
(lp2385
V\u9616
aV\u95a4
asV\u6fd8
(lp2386
V\u6cde
asV\u805d
(lp2387
V\u9998
asV\u61dc
(lp2388
V\u61f5
asV\u7be0
(lp2389
V\u7b71
aV\u7b7f
asV\u7de4
(lp2390
V\u7d32
asV\u5167
(lp2391
V\u5185
asV\u6271
(lp2392
V\u63d2
asV\u7e79
(lp2393
V\u7ece
asV\u707d
(lp2394
V\u707e
aV\u70d6
asV\u51fc
(lp2395
V\u5e7d
asV\u6506
(lp2396
V\u64b5
asV\u790e
(lp2397
V\u7840
asV\u5395
(lp2398
V\u5ec1
asV\u9c20
(lp2399
V\u9ccb
asV\u5f22
(lp2400
V\u97dc
asV\u9a24
(lp2401
V\u9a99
asV\u8fad
(lp2402
V\u8f9e
asV\u6e2c
(lp2403
V\u6d4b
asV\u83b5
(lp2404
V\u83df
asV\u99b9
(lp2405
V\u9a72
asV\u97bd
(lp2406
V\u6a47
aV\u9792
asV\u8f42
(lp2407
V\u6bc2
asV\u8546
(lp2408
V\u8487
asV\u61c9
(lp2409
V\u5e94
aV\u5fdc
asV\u834a
(lp2410
V\u8346
aV\u8346
asV\u9752
(lp2411
V\u9751
asV\u8ed7
(lp2412
V\U00028405
asV\u82df
(lp2413
V\u830d
asV\u615e
(lp2414
V\u50bd
asV\u5de1
(lp2415
V\u5ef5
aV\u5ef5
asV\u98e3
(lp2416
V\u9964
asV\u736a
(lp2417
V\u72ef
aV\u733e
asV\u8274
(lp2418
V\u52c3
asV\u7ef7
(lp2419
V\u7e43
asV\u967c
(lp2420
V\u6e1a
asV\U0002517e
(lp2421
V\u468e
asV\u8b05
(lp2422
V\u8bcc
asV\u5c0b
(lp2423
V\u5bfb
asV\u7e8c
(lp2424
V\u7eed
asV\u398e
(lp2425
V\U000226ef
asV\u9315
(lp2426
V\u951f
asV\u8b9a
(lp2427
V\u8b83
asV\u671d
(lp2428
V\u6641
asV\u7d21
(lp2429
V\u7eba
asV\u9fa2
(lp2430
V\u548c
asV\u8c2b
(lp2431
V\u8b2d
asV\u93aa
(lp2432
V\u953c
asV\u4f2d
(lp2433
V\u7384
asV\u69ae
(lp2434
V\u8363
aV\u8363
asV\U00027db6
(lp2435
V\u8ca9
asV\u923f
(lp2436
V\u94bf
asV\u71be
(lp2437
V\u70bd
asV\u8cc0
(lp2438
V\u8d3a
asV\u4fc2
(lp2439
V\u7cfb
asV\u8ac4
(lp2440
V\u8c06
asV\u7c4b
(lp2441
V\U00025b1e
asV\u9ecc
(lp2442
V\u9ec9
asV\u57d2
(lp2443
V\u57d3
asV\u4e57
(lp2444
V\u4e58
asV\u9d61
(lp2445
V\u9e49
asV\u7ce0
(lp2446
V\u7a45
aV\u7a45
asV\u9b65
(lp2447
V\U00029f79
asV\u87f2
(lp2448
V\u866b
aV\u866b
asV\u6375
(lp2449
V\u4940
asV\uf979
(lp2450
V\u6dbc
asV\u91fe
(lp2451
V\u497a
asV\u4c81
(lp2452
V\u9cda
asV\u6406
(lp2453
V\u69cb
asV\U00027959
(lp2454
V\U00023040
asV\u6f97
(lp2455
V\u78f5
aV\u6da7
asV\u8918
(lp2456
V\u8886
asV\uf9a3
(lp2457
V\u5ff5
asV\u522a
(lp2458
V\u5220
aV\u5220
asV\u8ead
(lp2459
V\u7708
aV\u803d
asV\u6f2c
(lp2460
V\u6e0d
asV\u5fb7
(lp2461
V\u60ea
asV\uf938
(lp2462
V\u9732
asV\u55bb
(lp2463
V\u55a9
asV\u96bd
(lp2464
V\u96cb
asV\u6cc1
(lp2465
V\u51b5
aV\u51b5
asV\u824a
(lp2466
V\u8236
asV\u5f4c
(lp2467
V\u5f25
asV\u984e
(lp2468
V\u989a
asV\u5354
(lp2469
V\u534f
aV\u604a
asV\u83df
(lp2470
V\u83b5
asV\u7e62
(lp2471
V\u7f0b
aV\u7e6a
asV\u6deb
(lp2472
V\u5a6c
aV\u5a6c
asV\U000205e6
(lp2473
V\u6191
asV\U00020cbf
(lp2474
V\u6b36
asV\u8009
(lp2475
V\u8008
asV\u5d0b
(lp2476
V\u83ef
asV\u7f8c
(lp2477
V\u7f97
asV\u9215
(lp2478
V\u94ae
asV\u4998
(lp2479
V\U00028e04
asV\u8a9a
(lp2480
V\u8b59
aV\u8bee
asV\u7c21
(lp2481
V\u8015
aV\u7b80
asV\u5da0
(lp2482
V\u5ce4
asV\ufa25
(lp2483
V\u9038
asV\u51a8
(lp2484
V\u5bcc
asV\u92aa
(lp2485
V\u94d5
asV\u8133
(lp2486
V\u8166
asV\u7aba
(lp2487
V\u7aa5
asV\u563d
(lp2488
V\u5574
asV\u4ec2
(lp2489
V\u50cd
asV\u6747
(lp2490
V\u572c
asV\u81c8
(lp2491
V\u81d8
asV\u7d4b
(lp2492
V\u7e8a
asV\u9fcc
(lp2493
V\u6dbc
asV\u7b4f
(lp2494
V\u6830
asV\u58ce
(lp2495
V\u5864
asV\u95d0
(lp2496
V\u9617
asV\u4f57
(lp2497
V\u5b83
asV\u69d8
(lp2498
V\u6a23
asV\u67dc
(lp2499
V\u6ac3
asV\u7de0
(lp2500
V\u7f14
asV\u9a65
(lp2501
V\u9aa5
asV\u7be4
(lp2502
V\u7b03
asV\u9069
(lp2503
V\u9002
asV\u6275
(lp2504
V\u4e8e
asV\u9cf6
(lp2505
V\u9e22
asV\u59f8
(lp2506
V\u598d
asV\u57fc
(lp2507
V\u5d0e
asV\u9293
(lp2508
V\u94e8
asV\u8a18
(lp2509
V\u8bb0
asV\u5d22
(lp2510
V\u5ce5
asV\u9824
(lp2511
V\u9823
aV\u9890
aV\u9809
asV\u512a
(lp2512
V\u4f18
asV\u6c2c
(lp2513
V\u6c29
asV\u6630
(lp2514
V\u662f
asV\u56bb
(lp2515
V\u56c2
asV\u95bd
(lp2516
V\u960d
asV\u6fc1
(lp2517
V\u6d4a
asV\U000260b3
(lp2518
V\u7dca
asV\u69c5
(lp2519
V\u6838
asV\u7dcd
(lp2520
V\U0002620f
asV\u9b4e
(lp2521
V\u9b49
asV\u5650
(lp2522
V\u5668
aV\u5668
asV\u71d5
(lp2523
V\u9df0
asV\u86db
(lp2524
V\u9f04
aV\u9f04
asV\u695a
(lp2525
V\u6918
asV\U000280df
(lp2526
V\U000280de
asV\u9ae3
(lp2527
V\u5f77
aV\u4eff
asV\u7d62
(lp2528
V\u7eda
asV\u59e5
(lp2529
V\u59c6
asV\u8c6c
(lp2530
V\u732a
aV\u732a
asV\u8074
(lp2531
V\u807d
asV\u947c
(lp2532
V\u9523
asV\u6e80
(lp2533
V\u6eff
asV\u5e0b
(lp2534
V\u7d19
aV\u7d19
asV\u7690
(lp2535
V\u768b
asV\u5213
(lp2536
V\u56ed
asV\u9115
(lp2537
V\u9109
aV\u9109
asV\u7094
(lp2538
V\u803f
asV\u4a98
(lp2539
V\U000293ff
asV\u899a
(lp2540
V\u89ba
asV\u651d
(lp2541
V\u6444
aV\u6442
asV\ufa1a
(lp2542
V\u7965
asV\uf925
(lp2543
V\u62c9
asV\u58a4
(lp2544
V\u96a4
asV\u97a6
(lp2545
V\u97a7
asV\u6bae
(lp2546
V\u6b93
asV\u9c37
(lp2547
V\u9ca6
asV\u7fb6
(lp2548
V\u7fb4
asV\uf9ba
(lp2549
V\u4e86
asV\u8ec0
(lp2550
V\u8eaf
asV\u6447
(lp2551
V\u6416
asV\u7e4b
(lp2552
V\u7e6b
asV\u55d2
(lp2553
V\u35f3
asV\u8b59
(lp2554
V\u8a9a
aV\u8c2f
asV\u9f61
(lp2555
V\u9f84
aV\u9f62
asV\u5a63
(lp2556
V\u59fb
aV\u59fb
asV\u9965
(lp2557
V\u98e2
asV\u9369
(lp2558
V\u9518
asV\u6771
(lp2559
V\u4e1c
aV\u4e1c
asV\u757d
(lp2560
V\u7583
asV\u93fe
(lp2561
V\U0002070e
asV\u4e81
(lp2562
V\u4e7e
asV\u8b83
(lp2563
V\u8b9a
asV\u6c02
(lp2564
V\u7266
aV\u729b
asV\u4e16
(lp2565
V\u4e17
asV\u9f20
(lp2566
V\u9f21
asV\u5c22
(lp2567
V\u5c23
asV\u9328
(lp2568
V\u951a
asV\u4fab
(lp2569
V\u4f5e
asV\u8cad
(lp2570
V\u8cea
aV\u8cea
asV\u6134
(lp2571
V\u6006
asV\u57bb
(lp2572
V\u58e9
aV\u58e9
asV\u68c5
(lp2573
V\u67c4
asV\u8646
(lp2574
V\u8502
asV\u62c9
(lp2575
V\uf925
asV\u5750
(lp2576
V\u5ea7
asV\u9452
(lp2577
V\u9451
aV\u9274
aV\u9451
asV\u70d5
(lp2578
V\u6ec5
asV\u5154
(lp2579
V\u514e
aV\u514e
asV\u87db
(lp2580
V\u87da
asV\u81df
(lp2581
V\u810f
asV\u625e
(lp2582
V\u634d
aV\u64c0
asV\u5ee1
(lp2583
V\u5e91
asV\u52e9
(lp2584
V\u52da
asV\u6feb
(lp2585
V\u6ee5
asV\u8d6c
(lp2586
V\u4793
aV\u8d6a
asV\u7df7
(lp2587
V\U00026209
asV\u5e76
(lp2588
V\u4e26
asV\u527e
(lp2589
V\U000206c5
asV\u8e01
(lp2590
V\u785c
asV\u6f80
(lp2591
V\u6da9
aV\u6f81
asV\u8805
(lp2592
V\u8747
aV\u8747
asV\u8209
(lp2593
V\u4e3e
aV\u64e7
asV\u9c0d
(lp2594
V\u9c0c
aV\u9cc5
asV\u7d8c
(lp2595
V\u7ee4
asV\u9015
(lp2596
V\u8ff3
aV\u5f91
asV\u7194
(lp2597
V\u9394
aV\u9394
asV\u6a19
(lp2598
V\u6807
asV\u5fa0
(lp2599
V\u5f95
aV\u4f86
asV\u7825
(lp2600
V\u538e
asV\u59a4
(lp2601
V\u4f03
asV\u53a8
(lp2602
V\u5eda
asV\u6aae
(lp2603
V\u68bc
asV\u64b2
(lp2604
V\u6251
aV\u6251
aV\u6534
asV\u9d37
(lp2605
V\u4d15
asV\u78ba
(lp2606
V\u786e
asV\uf94f
(lp2607
V\u7d2f
asV\U000297d0
(lp2608
V\U00029805
asV\u91d4
(lp2609
V\u9487
asV\u6bd8
(lp2610
V\u6bd7
asV\U000228da
(lp2611
V\U0002261d
asV\u7fe0
(lp2612
V\u7fc6
asV\u9865
(lp2613
V\u98a2
asV\uf9e4
(lp2614
V\u7406
asV\u8aee
(lp2615
V\u8c18
aV\u54a8
asV\u6075
(lp2616
V\u60e0
asV\u9ef6
(lp2617
V\u9ee1
asV\U000298fa
(lp2618
V\U000299fc
asV\u747d
(lp2619
V\U0002aed0
asV\U00021483
(lp2620
V\u96a9
asV\u7906
(lp2621
V\u7877
aV\u96aa
asV\u808b
(lp2622
V\uf953
asV\u8c93
(lp2623
V\u732b
aV\u732b
asV\u6b12
(lp2624
V\u683e
aV\u7064
asV\u9418
(lp2625
V\u949f
aV\u937e
asV\u64a3
(lp2626
V\u63b8
asV\u8624
(lp2627
V\u82b1
asV\u93ad
(lp2628
V\u93ae
asV\u99b1
(lp2629
V\u4b7e
aV\u9a6e
aV\u99c4
asV\u5cb3
(lp2630
V\u5dbd
asV\u7e34
(lp2631
V\u7ea4
asV\u42b7
(lp2632
V\u4336
asV\u71c1
(lp2633
V\u70e8
asV\u9f4a
(lp2634
V\u9f50
asV\u854e
(lp2635
V\u834d
aV\u835e
asV\u6fd5
(lp2636
V\u6ebc
aV\u6e7f
asV\u4e54
(lp2637
V\u55ac
asV\u7156
(lp2638
V\u6696
asV\u98db
(lp2639
V\u98de
asV\u3a5c
(lp2640
V\u3a2b
asV\u7d5e
(lp2641
V\u7ede
asV\u8ae7
(lp2642
V\u9fa4
aV\u8c10
asV\u6966
(lp2643
V\u6965
asV\u926c
(lp2644
V\u94bc
asV\u9870
(lp2645
V\u56ac
aV\u98a6
asV\u8a7c
(lp2646
V\u8bd9
asV\u6eff
(lp2647
V\u6ee1
asV\u5403
(lp2648
V\u55ab
aV\u55ab
asV\u9d09
(lp2649
V\u9e26
aV\u9d76
asV\u400b
(lp2650
V\u9e7d
asV\u830d
(lp2651
V\u82df
asV\u628c
(lp2652
V\u8200
asV\u8f15
(lp2653
V\u8f7b
asV\u9196
(lp2654
V\u919e
asV\u83a2
(lp2655
V\u835a
asV\u6725
(lp2656
V\U000266e8
asV\u89a6
(lp2657
V\u89ce
asV\u532d
(lp2658
V\u5326
asV\u962f
(lp2659
V\u5740
asV\u9c33
(lp2660
V\u9cd3
asV\u5f35
(lp2661
V\u5f20
asV\u61b6
(lp2662
V\u5fc6
asV\u883b
(lp2663
V\u86ee
asV\u59c6
(lp2664
V\u59e5
asV\u604b
(lp2665
V\u6200
asV\U00025fca
(lp2666
V\U00026208
asV\u8ed4
(lp2667
V\u8f6b
asV\u5257
(lp2668
V\u5277
aV\u522c
asV\u7adc
(lp2669
V\u9f8d
asV\u5e5f
(lp2670
V\u65d8
aV\u5e1c
asV\u8161
(lp2671
V\u8136
asV\u60e0
(lp2672
V\u6075
asV\u8765
(lp2673
V\u87ca
asV\U00028d69
(lp2674
V\U00028e06
asV\uf971
(lp2675
V\u8fb0
asV\u58f0
(lp2676
V\u8072
asV\u7f75
(lp2677
V\u508c
aV\u9a82
asV\u87fa
(lp2678
V\u87ee
asV\U00022e7f
(lp2679
V\U00022b26
asV\U00025081
(lp2680
V\u9e7d
asV\u9583
(lp2681
V\u95ea
asV\u3704
(lp2682
V\u36af
asV\u818b
(lp2683
V\u81ab
asV\u7e0a
(lp2684
V\u7f22
asV\u5016
(lp2685
V\u5e78
aV\u5e78
asV\ufa05
(lp2686
V\u6d1e
asV\uf99b
(lp2687
V\u934a
asV\u92ad
(lp2688
V\u9322
asV\u732c
(lp2689
V\u875f
asV\u342e
(lp2690
V\u8944
asV\u98b1
(lp2691
V\u53f0
asV\uf930
(lp2692
V\u64c4
asV\u9eb5
(lp2693
V\u9762
aV\u9eba
asV\u4fbf
(lp2694
V\uf965
asV\u5140
(lp2695
V\ufa0c
asV\u76c5
(lp2696
V\u6c96
asV\u9846
(lp2697
V\u9897
asV\u7cc9
(lp2698
V\u7cbd
asV\u68d1
(lp2699
V\u7bfa
asV\u8a52
(lp2700
V\u8bd2
asV\u4f54
(lp2701
V\u5360
asV\u93d7
(lp2702
V\u94ff
asV\u99db
(lp2703
V\U000298b2
aV\u9a76
asV\u936c
(lp2704
V\u936b
aV\u9539
asV\u77ef
(lp2705
V\u77eb
asV\u63f7
(lp2706
V\u63d2
asV\u69fb
(lp2707
V\u898f
asV\u6fff
(lp2708
V\u7805
asV\u9605
(lp2709
V\u95b1
asV\u9c09
(lp2710
V\u9c51
aV\u9cc7
asV\u7d88
(lp2711
V\u7ee8
asV\u820d
(lp2712
V\u820e
asV\u8811
(lp2713
V\u877e
asV\u6f94
(lp2714
V\u6d69
asV\ufa1d
(lp2715
V\u7cbe
asV\u5b9c
(lp2716
V\u5b90
aV\u519d
asV\u6625
(lp2717
V\u8405
asV\U0002961d
(lp2718
V\U0002966d
asV\u8eaa
(lp2719
V\u8e8f
asV\u5831
(lp2720
V\u62a5
aV\u62a5
asV\u9d33
(lp2721
V\u9dc3
asV\u60b6
(lp2722
V\u95f7
asV\u893b
(lp2723
V\u4eb5
asV\u8f3f
(lp2724
V\u8f5d
aV\u8206
asV\u91c0
(lp2725
V\u917f
aV\u91b8
asV\u7b47
(lp2726
V\u7b3b
asV\u9dc8
(lp2727
V\u4d18
asV\u614b
(lp2728
V\u6001
asV\u5eca
(lp2729
V\uf928
asV\u83cc
(lp2730
V\u8548
asV\u8061
(lp2731
V\u8070
asV\U000267e4
(lp2732
V\u9948
asV\u6de8
(lp2733
V\u51c8
aV\u51c8
asV\u86fa
(lp2734
V\u86f1
asV\u8cfe
(lp2735
V\u8d5c
asV\U00025585
(lp2736
V\U0002542f
asV\u7b06
(lp2737
V\u5df4
asV\U0002418d
(lp2738
V\u8d64
asV\u8e93
(lp2739
V\u8e2c
asV\u6912
(lp2740
V\u832d
asV\U00020c58
(lp2741
V\U00020e3a
asV\u551a
(lp2742
V\u5423
aV\u5423
asV\u981c
(lp2743
V\u988c
asV\u8e28
(lp2744
V\u8e64
asV\u52ab
(lp2745
V\u5226
asV\u702c
(lp2746
V\u7028
asV\u54af
(lp2747
V\u8a7b
asV\u9db5
(lp2748
V\u96db
asV\u89bd
(lp2749
V\u89c8
aV\u89a7
asV\u61cd
(lp2750
V\u61d4
asV\u874e
(lp2751
V\u880d
asV\u6d6a
(lp2752
V\uf92a
asV\u60f7
(lp2753
V\u8822
asV\u6afb
(lp2754
V\u6a31
asV\u9301
(lp2755
V\u951e
asV\u5807
(lp2756
V\u83eb
aV\u83eb
asV\u9f09
(lp2757
V\u9f0d
asV\u7e88
(lp2758
V\u7f2c
asV\u6a90
(lp2759
V\u7c37
asV\u9396
(lp2760
V\u9501
asV\u7719
(lp2761
V\u77aa
asV\uf91d
(lp2762
V\u6b04
asV\u589c
(lp2763
V\u5760
asV\u81a2
(lp2764
V\U0002677c
asV\u512d
(lp2765
V\u896f
asV\u942f
(lp2766
V\u4983
asV\uf9b2
(lp2767
V\u96f6
asV\u8a3b
(lp2768
V\u6ce8
asV\u8c3f
(lp2769
V\u5d60
asV\u6fbe
(lp2770
V\u3ce0
asV\u51c2
(lp2771
V\u6d7c
asV\u5bc6
(lp2772
V\u5bbb
aV\u5bbb
asV\u624b
(lp2773
V\u624c
asV\u8cd4
(lp2774
V\u8cd3
aV\u8cd3
asV\u346f
(lp2775
V\u3454
asV\u97ee
(lp2776
V\u97ed
aV\u97ed
asV\u7b71
(lp2777
V\u7be0
aV\u7be0
asV\u7d75
(lp2778
V\u7e6a
asV\u5cf4
(lp2779
V\u5c98
asV\u85fa
(lp2780
V\u853a
asV\u697d
(lp2781
V\u6a02
asV\u7002
(lp2782
V\u6f9b
aV\u6f9b
asV\ufa06
(lp2783
V\u66b4
asV\U00027c0a
(lp2784
V\u78cc
asV\u660e
(lp2785
V\u6719
asV\u6812
(lp2786
V\u7c28
asV\u7197
(lp2787
V\u709d
asV\u7b9b
(lp2788
V\u7b8d
asV\u541a
(lp2789
V\u54bf
asV\u389d
(lp2790
V\U000222c8
asV\u991c
(lp2791
V\u4d39
aV\u9983
asV\u8320
(lp2792
V\u8585
asV\U000267a3
(lp2793
V\u81ca
asV\u4022
(lp2794
V\u77ac
asV\u69a7
(lp2795
V\u68d0
asV\u5fb3
(lp2796
V\u5fb7
asV\U00023832
(lp2797
V\U00023476
asV\U000206b9
(lp2798
V\u829f
asV\u6738
(lp2799
V\u6250
asV\u5340
(lp2800
V\u533a
asV\u5f48
(lp2801
V\u5f39
asV\u864e
(lp2802
V\u4e55
asV\u91d7
(lp2803
V\u948a
asV\u9bdb
(lp2804
V\u9cb7
asV\u7e5e
(lp2805
V\u9076
aV\u7ed5
asV\u87e3
(lp2806
V\u866e
asV\u89e7
(lp2807
V\u89e3
aV\u89e3
asV\u6a66
(lp2808
V\u5e62
asV\u916c
(lp2809
V\u9167
asV\u5872
(lp2810
V\u5834
asV\u61f7
(lp2811
V\u6000
asV\u8778
(lp2812
V\u8717
asV\u4e7e
(lp2813
V\u5e72
asV\u9201
(lp2814
V\u94ab
asV\u7380
(lp2815
V\u7321
asV\u7f88
(lp2816
V\u898a
aV\u7f81
aV\u898a
asV\u430b
(lp2817
V\U00026218
asV\u8a11
(lp2818
V\U0002b359
asV\u9296
(lp2819
V\u94e2
asV\u9e9e
(lp2820
V\u7350
asV\u80a2
(lp2821
V\u80d1
asV\u6425
(lp2822
V\u6376
asV\u8aa6
(lp2823
V\u8bf5
asV\u6e29
(lp2824
V\u6eab
asV\u932b
(lp2825
V\u9521
asV\u8caa
(lp2826
V\u8d2a
asV\u50c2
(lp2827
V\u507b
asV\uf947
(lp2828
V\u78ca
asV\u654f
(lp2829
V\u52c4
asV\u5157
(lp2830
V\u5156
asV\uf9dc
(lp2831
V\u9686
asV\u98f2
(lp2832
V\u996e
aV\u98ee
asV\u5df4
(lp2833
V\u7b06
asV\u8efe
(lp2834
V\u8f7c
asV\u3400
(lp2835
V\u4e18
asV\U000277aa
(lp2836
V\U00027640
asV\u9e87
(lp2837
V\u9e95
asV\u7d06
(lp2838
V\u7ea1
asV\u5516
(lp2839
V\u555e
asV\u7c9b
(lp2840
V\u8085
asV\U00028dae
(lp2841
V\U00028e0c
asV\u8420
(lp2842
V\u840c
asV\u8828
(lp2843
V\u87cf
asV\U00029db1
(lp2844
V\U00029f7d
asV\u58b3
(lp2845
V\u575f
asV\u4abf
(lp2846
V\u56df
asV\u9742
(lp2847
V\u96f3
asV\u5244
(lp2848
V\u522d
asV\uf9c9
(lp2849
V\u67f3
asV\u5848
(lp2850
V\u588d
asV\u814e
(lp2851
V\u80be
asV\u51d9
(lp2852
V\U0002a79d
asV\u795e
(lp2853
V\ufa19
asV\u516e
(lp2854
V\U00020503
asV\u5f72
(lp2855
V\u5f68
aV\u5f68
asV\u9909
(lp2856
V\u995f
aV\u9977
asV\u870d
(lp2857
V\u8829
asV\U00028b15
(lp2858
V\U00028b1f
asV\u6a94
(lp2859
V\u6b13
aV\u6863
asV\ufa18
(lp2860
V\u793c
asV\u5098
(lp2861
V\u7e56
aV\u4f1e
asV\u939a
(lp2862
V\u9318
asV\U0002969b
(lp2863
V\U000297ff
asV\u87a2
(lp2864
V\u8424
aV\u86cd
asV\u48a8
(lp2865
V\U00028479
asV\u942b
(lp2866
V\u954c
asV\u572d
(lp2867
V\u73ea
asV\u922f
(lp2868
V\U00028c44
asV\u7043
(lp2869
V\u6ca3
asV\u92c4
(lp2870
V\u933d
asV\u98c8
(lp2871
V\u98da
asV\u644b
(lp2872
V\U00022aec
asV\u86cc
(lp2873
V\u86c4
asV\u70d8
(lp2874
V\u7074
asV\u5c5b
(lp2875
V\u6452
asV\u64e0
(lp2876
V\u6324
asV\U00024063
(lp2877
V\U00023ebd
asV\u7d71
(lp2878
V\u7d82
aV\u7edf
asV\u5cf0
(lp2879
V\u5cef
asV\u85f6
(lp2880
V\u82c8
asV\u4efc
(lp2881
V\u4efb
aV\u4efb
asV\u7602
(lp2882
V\u555e
aV\u75d6
asV\u7a0a
(lp2883
V\u413a
asV\u8993
(lp2884
V\u8994
aV\u89c5
asV\u55ab
(lp2885
V\u5403
aV\u5403
asV\u7d30
(lp2886
V\u7ec6
asV\u59b3
(lp2887
V\u4f60
asV\u9ab5
(lp2888
V\u9ad4
asV\u5344
(lp2889
V\u5eff
aV\u5eff
asV\u5948
(lp2890
V\u67f0
aV\u67f0
asV\u9a4a
(lp2891
V\U00026f4a
aV\u9a85
asV\u5edd
(lp2892
V\u53ae
asV\u6662
(lp2893
V\u6670
asV\u48e9
(lp2894
V\u9187
asV\uf9f3
(lp2895
V\u9e9f
asV\u5e72
(lp2896
V\u4e7e
asV\u9b74
(lp2897
V\u9c82
asV\u8178
(lp2898
V\u80a0
aV\u8193
asV\u6bff
(lp2899
V\u6bf5
asV\u7384
(lp2900
V\u4f2d
asV\uf988
(lp2901
V\u9e97
asV\u8a15
(lp2902
V\u8baa
asV\u9496
(lp2903
V\u9521
asV\u929a
(lp2904
V\u94eb
asV\u7e1d
(lp2905
V\u7f1c
asV\u8aaa
(lp2906
V\u8bf4
aV\u8aac
asV\u932f
(lp2907
V\u9519
asV\u70ae
(lp2908
V\u7832
asV\u9933
(lp2909
V\u9967
asV\u4039
(lp2910
V\u776b
aV\U00025174
asV\u3441
(lp2911
V\U00020b74
asV\U000295c0
(lp2912
V\U00029666
asV\u56c2
(lp2913
V\u56a3
asV\u7f47
(lp2914
V\u6a3d
asV\u99c8
(lp2915
V\u9a45
asV\u634f
(lp2916
V\u63d1
asV\u6953
(lp2917
V\u67ab
asV\u9059
(lp2918
V\u9065
asV\u65e0
(lp2919
V\u7121
asV\u69e8
(lp2920
V\u6901
aV\u6901
asV\u766d
(lp2921
V\u763f
asV\u5df0
(lp2922
V\u5def
asV\u9ef2
(lp2923
V\u9eea
asV\u82fa
(lp2924
V\u8393
aV\u8393
asV\u9283
(lp2925
V\u94f3
asV\u868b
(lp2926
V\u8739
asV\uf90a
(lp2927
V\u91d1
asV\u458d
(lp2928
V\u8654
asV\u6d12
(lp2929
V\u7051
asV\u5716
(lp2930
V\u5715
aV\u56fe
aV\u56f3
asV\u9c1c
(lp2931
V\u9cd2
asV\u8024
(lp2932
V\u85c9
aV\u85c9
asV\u95ad
(lp2933
V\u95fe
aV\uf986
asV\u50af
(lp2934
V\u506c
asV\U00021fb1
(lp2935
V\u37dc
asV\u6238
(lp2936
V\u6236
asV\u4ebb
(lp2937
V\u4eba
asV\u6c3c
(lp2938
V\u6eba
asV\u77c1
(lp2939
V\u7785
asV\u7bc9
(lp2940
V\u7b51
asV\u994a
(lp2941
V\u7ce4
aV\u9993
asV\U0002a0cf
(lp2942
V\U0002a24f
asV\u5ddd
(lp2943
V\u5ddb
asV\u98df
(lp2944
V\u98e0
aV\u9963
asV\u7b5e
(lp2945
V\u7b56
asV\u8ce7
(lp2946
V\u8d55
asV\u536e
(lp2947
V\u5df5
asV\u9874
(lp2948
V\u98a7
asV\u64f7
(lp2949
V\u64b7
asV\u6efb
(lp2950
V\u6d50
asV\u4b7e
(lp2951
V\u99b1
asV\u5203
(lp2952
V\u5204
aV\u5204
asV\u5c07
(lp2953
V\U0002456d
aV\u5c06
asV\u6e90
(lp2954
V\u53b5
asV\u6894
(lp2955
V\u6800
asV\u7319
(lp2956
V\u72f0
asV\u7d1d
(lp2957
V\u7eb4
asV\u9b9e
(lp2958
V\u9c95
asV\u8fa6
(lp2959
V\u529e
aV\u529e
asV\u89aa
(lp2960
V\u4eb2
asV\U0002080e
(lp2961
V\U000206b3
asV\u7db2
(lp2962
V\u7f51
asV\u67b6
(lp2963
V\u69a2
asV\u90c4
(lp2964
V\u90e4
aV\u9699
asV\u664b
(lp2965
V\u6649
asV\u59ca
(lp2966
V\u59c9
aV\u59c9
asV\u6a53
(lp2967
V\u8563
asV\u9d5d
(lp2968
V\u9d5e
aV\u9e45
asV\u585f
(lp2969
V\u846c
aV\u846c
asV\u66e0
(lp2970
V\u65f7
aV\u663f
asV\u6ae8
(lp2971
V\u680c
asV\u756d
(lp2972
V\u756c
asV\u5ef0
(lp2973
V\u5ef3
asV\u3a73
(lp2974
V\u39d0
asV\u9df2
(lp2975
V\u9e6b
asV\uf975
(lp2976
V\u63a0
asV\u87f6
(lp2977
V\u86cf
asV\u81fa
(lp2978
V\u53f0
aV\u53f0
asV\u9d87
(lp2979
V\u9e2b
asV\u8b93
(lp2980
V\u8ba9
asV\U00024895
(lp2981
V\u6581
asV\u5616
(lp2982
V\u5567
asV\u9318
(lp2983
V\u939a
aV\u9524
asV\u9d1c
(lp2984
V\U0002a248
asV\uf99f
(lp2985
V\u70c8
asV\u4e26
(lp2986
V\u5e76
aV\u5e77
asV\u8b28
(lp2987
V\u8c1f
asV\u752c
(lp2988
V\u57c7
asV\u7f30
(lp2989
V\u7e6e
asV\u7934
(lp2990
V\u7921
asV\u8cbd
(lp2991
V\u8d3b
asV\u5740
(lp2992
V\u962f
asV\u454c
(lp2993
V\u7a1a
asV\u6ed1
(lp2994
V\u78c6
asV\u95d7
(lp2995
V\u95dc
asV\u52d9
(lp2996
V\u52a1
asV\u99df
(lp2997
V\u9a77
asV\u7a5e
(lp2998
V\u7a6d
asV\u46e1
(lp2999
V\u8a71
asV\U00024ae9
(lp3000
V\u3ecf
asV\u526e
(lp3001
V\u5250
asV\u7bf3
(lp3002
V\u7b5a
asV\U00025303
(lp3003
V\U00025158
asV\u658c
(lp3004
V\u5f6c
asV\u9696
(lp3005
V\u5862
asV\u5398
(lp3006
V\u91d0
asV\u8ea6
(lp3007
V\u8e9c
asV\u6a29
(lp3008
V\u6b0a
asV\U00024ba8
(lp3009
V\u7931
asV\u8f3b
(lp3010
V\u8f90
aV\ufa07
asV\u6abe
(lp3011
V\u451b
asV\u7343
(lp3012
V\u5446
asV\u54c2
(lp3013
V\u5432
asV\u58ca
(lp3014
V\u58de
asV\u6b53
(lp3015
V\u6b61
asV\u89d4
(lp3016
V\u65a4
aV\u65a4
asV\u5557
(lp3017
V\u5556
asV\u5f5b
(lp3018
V\u5f5d
asV\u9c5d
(lp3019
V\u9cbc
asV\u7ddc
(lp3020
V\u7dbf
asV\u8a69
(lp3021
V\u8bd7
asV\u55ec
(lp3022
V\u5475
asV\u92ee
(lp3023
V\u94d6
asV\u5ff0
(lp3024
V\u60b4
asV\u9cf2
(lp3025
V\u9e24
asV\u7875
(lp3026
V\u78e0
asV\u8afe
(lp3027
V\u8bfa
asV\u888b
(lp3028
V\u5e12
asV\u8493
(lp3029
V\u84f4
aV\u84f4
asV\u7a97
(lp3030
V\u7a93
asV\u769f
(lp3031
V\U00024f80
asV\u58ab
(lp3032
V\u6a3d
asV\u9bad
(lp3033
V\u9c91
asV\u7a2c
(lp3034
V\u7cef
asV\u91b1
(lp3035
V\u9166
asV\u7030
(lp3036
V\u3cfd
aV\u5f4c
asV\u54b3
(lp3037
V\u6b2c
asV\u97b5
(lp3038
V\u978b
asV\U00028db9
(lp3039
V\u95a2
asV\u623c
(lp3040
V\u536f
asV\u79c1
(lp3041
V\u53b6
asV\u7fc5
(lp3042
V\u7fc4
aV\u7fc4
asV\u9146
(lp3043
V\u9137
asV\u9ad7
(lp3044
V\u9871
aV\u81da
asV\uf956
(lp3045
V\u7a1c
asV\u53dd
(lp3046
V\u544a
asV\u8ce3
(lp3047
V\u5356
aV\u58f2
asV\u6b62
(lp3048
V\u53ea
asV\u4fe5
(lp3049
V\u4f21
aV\u4f21
asV\u82e7
(lp3050
V\u82ce
asV\u8c78
(lp3051
V\u5ecc
asV\u60fb
(lp3052
V\u607b
asV\u9901
(lp3053
V\u98ea
asV\u9f05
(lp3054
V\u8718
asV\u5207
(lp3055
V\ufa00
asV\u6090
(lp3056
V\u60d5
asV\uf9d0
(lp3057
V\u985e
asV\u7d19
(lp3058
V\u5e0b
aV\u7eb8
asV\u6529
(lp3059
V\u64cb
asV\u982b
(lp3060
V\u4fef
asV\u9433
(lp3061
V\u956d
asV\u73b2
(lp3062
V\uf9ad
asV\u4d39
(lp3063
V\u991c
asV\u803b
(lp3064
V\u6065
asV\u863f
(lp3065
V\u841d
aV\uf910
asV\u65be
(lp3066
V\u65c6
asV\u98c0
(lp3067
V\u98d7
asV\u7c43
(lp3068
V\u7b96
aV\u7bee
asV\u51c6
(lp3069
V\u6e96
asV\u8acc
(lp3070
V\u8aeb
asV\u6e4f
(lp3071
V\u9808
asV\u86d4
(lp3072
V\u8716
asV\u9d59
(lp3073
V\u9d03
asV\u8569
(lp3074
V\u8361
asV\u7b6d
(lp3075
V\u7b97
asV\u7171
(lp3076
V\u3dbd
asV\u3473
(lp3077
V\u3447
asV\u89f6
(lp3078
V\u89ef
asV\u6d79
(lp3079
V\u6d43
asV\U00024cf8
(lp3080
V\U00024cc4
asV\u8ffa
(lp3081
V\u4e43
asV\u9d83
(lp3082
V\u9d82
asV\ufa02
(lp3083
V\u62d3
asV\u5e85
(lp3084
V\u9ebc
asV\u9387
(lp3085
V\u9545
asV\u7006
(lp3086
V\u6e0e
asV\u898b
(lp3087
V\u89c1
asV\u7b97
(lp3088
V\u7b6d
aV\u7958
asV\u5816
(lp3089
V\u57b4
asV\u5e1a
(lp3090
V\u7b92
aV\u83f7
asV\u541e
(lp3091
V\u5451
aV\u5451
asV\u59ab
(lp3092
V\u5aaf
asV\u7130
(lp3093
V\u71c4
aV\u7114
asV\U000296b5
(lp3094
V\U00029801
asV\u633c
(lp3095
V\u637c
asV\u78c1
(lp3096
V\u74f7
asV\u9a42
(lp3097
V\u9a96
asV\u8c4e
(lp3098
V\u7aea
aV\u7ad6
asV\u9bd7
(lp3099
V\u9b9d
aV\u9c9e
asV\u7e5a
(lp3100
V\u7f2d
asV\u52dd
(lp3101
V\u80dc
asV\U00022960
(lp3102
V\u609a
asV\u6a62
(lp3103
V\u692d
aV\u6955
asV\u4ee5
(lp3104
V\u382f
asV\uf9eb
(lp3105
V\u533f
asV\u75f3
(lp3106
V\u75f2
asV\u9774
(lp3107
V\u97be
asV\U00028d78
(lp3108
V\U00028e07
asV\u67ff
(lp3109
V\u67be
asV\u9801
(lp3110
V\u9875
asV\u7980
(lp3111
V\u7a1f
asV\u8011
(lp3112
V\u5c08
asV\u6190
(lp3113
V\u601c
aV\uf98f
asV\u992b
(lp3114
V\u991b
asV\u86aa
(lp3115
V\u866c
asV\u7cae
(lp3116
V\u7ce7
asV\u72b2
(lp3117
V\u8c7a
aV\u8c7a
asV\u5635
(lp3118
V\u54d3
asV\u6eba
(lp3119
V\u6c3c
aV\u5c3f
asV\u64be
(lp3120
V\u631d
asV\u7d43
(lp3121
V\u5f26
aV\u5f26
asV\u95c8
(lp3122
V\u95f1
asV\u56ca
(lp3123
V\u56a2
asV\u6553
(lp3124
V\u655a
asV\u7dd8
(lp3125
V\u7f04
asV\u575f
(lp3126
V\u58b3
asV\u6fe4
(lp3127
V\u6d9b
asV\u7a6d
(lp3128
V\u7a06
aV\u7a5e
asV\u5bec
(lp3129
V\u5bbd
aV\u5bdb
asV\u9cee
(lp3130
V\u96de
asV\u8efa
(lp3131
V\U00028373
aV\u8f7a
asV\uf902
(lp3132
V\u8eca
asV\u9087
(lp3133
V\u8fe9
aV\u8fe9
asV\u6f0e
(lp3134
V\u6f68
asV\u8693
(lp3135
V\u87be
asV\u3f99
(lp3136
V\u812a
asV\u9e18
(lp3137
V\u9e74
asV\u729b
(lp3138
V\u9ae6
asV\u571e
(lp3139
V\u571d
aV\U0002a8ae
asV\u8a20
(lp3140
V\u77e7
asV\u99ad
(lp3141
V\u5fa1
aV\u9a6d
asV\u56b3
(lp3142
V\u4fc8
aV\u55be
asV\u8fb9
(lp3143
V\u908a
asV\u6e38
(lp3144
V\u9030
asV\uf95e
(lp3145
V\u4e39
asV\u81bd
(lp3146
V\u80c6
aV\u80c6
asV\u5a40
(lp3147
V\u5a3f
asV\u9346
(lp3148
V\u9494
asV\u69cd
(lp3149
V\u67aa
asV\u8f4e
(lp3150
V\u8f7f
asV\u63d1
(lp3151
V\u634f
asV\u7b56
(lp3152
V\u7b5e
asV\u775e
(lp3153
V\u7750
asV\u8ee3
(lp3154
V\u8f5f
asV\u6366
(lp3155
V\u64d2
asV\u656a
(lp3156
V\u6560
asV\u986c
(lp3157
V\u98a5
asV\u7cef
(lp3158
V\u7cab
asV\u807c
(lp3159
V\u807d
asV\u64ff
(lp3160
V\u64f2
asV\u5e03
(lp3161
V\u4f48
asV\u7688
(lp3162
V\u6b78
asV\U0002688c
(lp3163
V\u6bb0
asV\u9d9a
(lp3164
V\u9e57
asV\u509c
(lp3165
V\u5fad
asV\U00022e23
(lp3166
V\U00022d91
asV\u6729
(lp3167
V\u7b49
asV\u9a2b
(lp3168
V\u9a9e
asV\u592d
(lp3169
V\u6b80
asV\u7fae
(lp3170
V\u7fb9
aV\u7fb9
asV\u5331
(lp3171
V\u532e
asV\u71b2
(lp3172
V\u988e
asV\u823b
(lp3173
V\u6ad3
asV\u67be
(lp3174
V\u67f9
aV\u67ff
asV\u7e43
(lp3175
V\u7db3
aV\u7ef7
aV\u7db3
asV\u53c6
(lp3176
V\u9749
asV\u6a4b
(lp3177
V\u6865
asV\u55ca
(lp3178
V\u551d
asV\u88cc
(lp3179
V\u88b7
asV\u4fce
(lp3180
V\u723c
asV\u5857
(lp3181
V\u6d82
aV\u51c3
asV\u9f59
(lp3182
V\u9f85
asV\u525b
(lp3183
V\u521a
asV\u915d
(lp3184
V\u919e
asV\u70dc
(lp3185
V\u6645
asV\u66e8
(lp3186
V\u663d
asV\uf96d
(lp3187
V\u7701
asV\u7371
(lp3188
V\u3e8d
asV\u3673
(lp3189
V\u8f57
asV\u7575
(lp3190
V\u756b
aV\u756b
asV\u54f4
(lp3191
V\u55a8
asV\u8bf6
(lp3192
V\u5509
asV\u8dfa
(lp3193
V\u8de5
aV\u8de5
asV\u617d
(lp3194
V\u617c
aV\u617c
asV\u9187
(lp3195
V\u48e9
asV\u8b8b
(lp3196
V\u8a5f
aV\u8a5f
asV\U00028d8f
(lp3197
V\U00028e0a
asV\u6012
(lp3198
V\uf960
asV\uf997
(lp3199
V\u806f
asV\u5c1a
(lp3200
V\u5c19
asV\u8b20
(lp3201
V\u8c23
asV\u6fa3
(lp3202
V\u6d63
asV\u8728
(lp3203
V\u8776
asV\u98ad
(lp3204
V\u98d0
asV\u792c
(lp3205
V\u77fe
asV\u92b1
(lp3206
V\u94de
asV\u94b5
(lp3207
V\u7f3d
asV\u6f38
(lp3208
V\u6e10
asV\u613c
(lp3209
V\u7718
asV\u5b40
(lp3210
V\u971c
asV\u944a
(lp3211
V\u956c
asV\u7def
(lp3212
V\u7eac
asV\u9370
(lp3213
V\u9436
aV\u953e
asV\u77f3
(lp3214
V\U00025418
asV\u9a01
(lp3215
V\u9a8b
asV\u880d
(lp3216
V\u874e
asV\u6390
(lp3217
V\U0002073c
asV\u701d
(lp3218
V\u6ca5
asV\u4ba0
(lp3219
V\U000299ff
asV\u82a6
(lp3220
V\u8606
asV\u582d
(lp3221
V\u968d
asV\u9d2f
(lp3222
V\u9e38
asV\u5231
(lp3223
V\u5275
aV\u524f
asV\u4e39
(lp3224
V\uf95e
asV\u853f
(lp3225
V\u848d
asV\u3a41
(lp3226
V\u6409
asV\u9bc0
(lp3227
V\u9ca7
asV\u9dc4
(lp3228
V\u96de
asV\u7147
(lp3229
V\u8f1d
asV\u97c8
(lp3230
V\u896a
asV\u4ece
(lp3231
V\u5f9e
asV\u71dc
(lp3232
V\u7116
asV\u555f
(lp3233
V\u5553
aV\u542f
asV\u8a61
(lp3234
V\u8be9
asV\u786d
(lp3235
V\U0002541e
asV\u59ec
(lp3236
V\u59eb
asV\u53f0
(lp3237
V\u81fa
aV\u53f0
asV\u8af6
(lp3238
V\u8a26
aV\u8c0c
asV\u8cfa
(lp3239
V\u8d03
aV\u8d5a
asV\u5d81
(lp3240
V\u5d5d
asV\U00021883
(lp3241
V\u36e0
asV\u5b85
(lp3242
V\ufa04
asV\u7506
(lp3243
V\u74f7
asV\u5189
(lp3244
V\u5184
asV\u690e
(lp3245
V\u69cc
asV\u5d16
(lp3246
V\u5393
asV\u9818
(lp3247
V\u9886
aV\uf9b4
asV\u961c
(lp3248
V\u961d
aV\u961d
asV\u8028
(lp3249
V\u9392
asV\u5cab
(lp3250
V\u5cc0
asV\u9fad
(lp3251
V\U00029a0e
asV\u7e2c
(lp3252
V\U0002621a
asV\u5aaf
(lp3253
V\u59ab
aV\u5b00
asV\u95b1
(lp3254
V\u9605
aV\u95b2
asV\u50b3
(lp3255
V\u4f20
asV\u93b5
(lp3256
V\u9553
asV\u4eb7
(lp3257
V\u5ec9
asV\u6838
(lp3258
V\u8988
asV\uf98d
(lp3259
V\u8f62
asV\u934a
(lp3260
V\uf99b
asV\u7d56
(lp3261
V\u7e8a
aV\u7e8a
asV\u59d9
(lp3262
V\u598a
asV\u3858
(lp3263
V\U0002214f
asV\u92df
(lp3264
V\u9513
asV\u6566
(lp3265
V\u60c7
asV\u596e
(lp3266
V\u594b
asV\u9470
(lp3267
V\u94a5
asV\u64fb
(lp3268
V\u64de
asV\u62ff
(lp3269
V\uf95b
asV\u5803
(lp3270
V\u5764
asV\u9b05
(lp3271
V\u9afc
asV\u9109
(lp3272
V\u4e61
asV\u6e8c
(lp3273
V\u6f51
asV\u6490
(lp3274
V\u6491
aV\u6491
asV\u9d96
(lp3275
V\u9e59
asV\u7919
(lp3276
V\u788d
asV\u9b9a
(lp3277
V\u9c92
asV\u919e
(lp3278
V\u915d
asV\u8fa2
(lp3279
V\u8fa3
aV\u8fa3
asV\u85a6
(lp3280
V\u8350
aV\u8350
asV\u79ae
(lp3281
V\u793c
aV\uf9b6
asV\u34b0
(lp3282
V\u5168
asV\u5335
(lp3283
V\u6add
asV\u6db6
(lp3284
V\u553e
asV\u6bba
(lp3285
V\u6740
aV\uf970
asV\u9ac4
(lp3286
V\u9ad3
asV\u7647
(lp3287
V\u75eb
asV\u55c6
(lp3288
V\u545b
asV\u8ecc
(lp3289
V\u8f68
asV\u5e57
(lp3290
V\u5e3c
asV\U00028d17
(lp3291
V\U00028e05
asV\u975d
(lp3292
V\u5929
aV\u9754
asV\u76dc
(lp3293
V\u76d7
aV\u76d7
asV\u5eec
(lp3294
V\u5e90
aV\uf982
asV\u99ee
(lp3295
V\u99c1
aV\u99c1
asV\u97f2
(lp3296
V\u9f4f
asV\u7375
(lp3297
V\U000248aa
aV\u730e
aV\uf9a7
asV\u46fc
(lp3298
V\u8b6d
asV\u7e02
(lp3299
V\u7e3d
asV\u7406
(lp3300
V\uf9e4
asV\U00023108
(lp3301
V\u3ace
asV\u8d8b
(lp3302
V\u8da8
asV\u6612
(lp3303
V\u3ada
asV\u7f97
(lp3304
V\u7f8c
asV\u5a1a
(lp3305
V\u5583
asV\u971c
(lp3306
V\u5b40
asV\u739f
(lp3307
V\u73ab
aV\u73c9
asV\u4e22
(lp3308
V\u4e1f
asV\u51b3
(lp3309
V\u6c7a
asV\U0002a03e
(lp3310
V\U0002a24b
asV\u39c3
(lp3311
V\u6536
asV\u7ac5
(lp3312
V\u7a8d
asV\u70c9
(lp3313
V\u7165
asV\u62d5
(lp3314
V\u62d6
aV\u62d6
asV\u7c56
(lp3315
V\u7c64
asV\u58d9
(lp3316
V\u5739
asV\u93df
(lp3317
V\u94f2
aV\u5257
asV\u89e3
(lp3318
V\u89e7
aV\u89e7
asV\u9f6c
(lp3319
V\u9f89
asV\u7bef
(lp3320
V\u7c5b
asV\u5672
(lp3321
V\u54d9
asV\u9c01
(lp3322
V\u9cc8
asV\u7d80
(lp3323
V\U0002620c
asV\u9a05
(lp3324
V\u9a93
asV\u5707
(lp3325
V\u56f5
asV\u7188
(lp3326
V\u7199
aV\u7199
asV\u579c
(lp3327
V\u579b
asV\u5e2d
(lp3328
V\u84c6
asV\uf943
(lp3329
V\u5f04
asV\u5ec2
(lp3330
V\u53a2
asV\u3a45
(lp3331
V\u3a28
asV\u9bc4
(lp3332
V\U00029f81
asV\u91c8
(lp3333
V\u91cb
asV\u83d4
(lp3334
V\u8514
aV\u8514
asV\u5f57
(lp3335
V\u7bf2
asV\u9859
(lp3336
V\u98a1
asV\u79d8
(lp3337
V\u7955
asV\u3ada
(lp3338
V\u6612
aV\u66f6
asV\u965d
(lp3339
V\u9655
aV\u965c
asV\u61e8
(lp3340
V\u6079
asV\u7e6d
(lp3341
V\u8327
asV\u98ee
(lp3342
V\u98f2
asV\u96f2
(lp3343
V\u4e91
asV\u53f4
(lp3344
V\u53b9
asV\u8afa
(lp3345
V\u8c1a
asV\u5f81
(lp3346
V\u5f81
asV\u7d02
(lp3347
V\u7ea3
asV\u8e8b
(lp3348
V\u96ae
aV\u8dfb
asV\U00027602
(lp3349
V\u885d
asV\u7c97
(lp3350
V\u9e84
asV\u9a18
(lp3351
V\u9a44
asV\u591a
(lp3352
V\u591b
asV\u6aa3
(lp3353
V\u8262
aV\u6a2f
asV\u5eab
(lp3354
V\u5e93
asV\u6a38
(lp3355
V\u6734
aV\u6734
asV\u5e40
(lp3356
V\u5e27
asV\u3ac3
(lp3357
V\u5043
asV\u9d42
(lp3358
V\u9e3a
asV\uf9c5
(lp3359
V\u6688
asV\u9746
(lp3360
V\u53c7
asV\u73c9
(lp3361
V\u739f
asV\u8b4e
(lp3362
V\u61b0
aV\u8c32
asV\u8552
(lp3363
V\u836c
asV\u96db
(lp3364
V\u9db5
aV\u96cf
asV\uf95a
(lp3365
V\u8b80
asV\u90df
(lp3366
V\u90cf
asV\u4fe1
(lp3367
V\u4f29
asV\u84e7
(lp3368
V\u839c
asV\u616a
(lp3369
V\u6004
asV\u78ef
(lp3370
V\u77f6
asV\u9670
(lp3371
V\u9634
asV\u9905
(lp3372
V\u9920
aV\u997c
asV\u4e0b
(lp3373
V\u4e05
asV\u8d0d
(lp3374
V\u8d61
asV\u8711
(lp3375
V\u86cb
asV\u999a
(lp3376
V\u99a9
asV\uf9c4
(lp3377
V\u9f8d
asV\U00022427
(lp3378
V\u6aa0
asV\u6329
(lp3379
V\u635d
asV\u9233
(lp3380
V\u94b6
asV\u803f
(lp3381
V\u7085
asV\u98c4
(lp3382
V\u98d8
aV\u98c3
asV\u7447
(lp3383
V\u73b3
asV\u80d4
(lp3384
V\u9ab4
asV\u9b59
(lp3385
V\u807b
asV\u8f61
(lp3386
V\u8f94
asV\u56f0
(lp3387
V\u774f
asV\u6b79
(lp3388
V\u6b7a
aV\u6b7a
asV\u657d
(lp3389
V\u657f
asV\u5e81
(lp3390
V\u5ef3
asV\u9b83
(lp3391
V\u9c86
asV\u9587
(lp3392
V\u9589
asV\u5289
(lp3393
V\u5218
aV\u5218
asV\u898f
(lp3394
V\u89c4
aV\u69fb
asV\u8393
(lp3395
V\u82fa
aV\u82fa
asV\u6412
(lp3396
V\u6337
asV\u7d2c
(lp3397
V\u7da2
aV\u4337
aV\u7da2
asV\u96b1
(lp3398
V\u4e5a
aV\u9690
asV\u53b3
(lp3399
V\u56b4
asV\u8ab9
(lp3400
V\u8bfd
asV\u6b38
(lp3401
V\u5509
aV\u5509
asV\u9c42
(lp3402
V\u9cc9
asV\u904a
(lp3403
V\u6e38
asV\u8a4e
(lp3404
V\u8bb5
asV\u8452
(lp3405
V\u836d
asV\u60d5
(lp3406
V\u6090
asV\u9dd7
(lp3407
V\u9e25
asV\u7e56
(lp3408
V\u5098
asV\u785a
(lp3409
V\u7904
asV\u9d6c
(lp3410
V\u9e4f
asV\uf9ef
(lp3411
V\u7498
asV\u8b78
(lp3412
V\u8bea
asV\u67fb
(lp3413
V\u67e5
aV\u67e5
asV\u7f80
(lp3414
V\u7f76
asV\u5b03
(lp3415
V\u5aad
asV\u9805
(lp3416
V\u9879
asV\uf984
(lp3417
V\u6ffe
asV\u5507
(lp3418
V\u8123
aV\u8123
asV\u9209
(lp3419
V\u94a0
asV\u6d8c
(lp3420
V\u6e67
aV\u6e67
asV\u8611
(lp3421
V\u85e6
asV\u6194
(lp3422
V\u9866
asV\ufa19
(lp3423
V\u795e
asV\u559c
(lp3424
V\u6199
asV\u8ca2
(lp3425
V\u8d21
asV\u86a6
(lp3426
V\u86ba
asV\u6229
(lp3427
V\u622c
asV\u5c2d
(lp3428
V\u582f
asV\u7aae
(lp3429
V\u7ac6
aV\u7a77
asV\u5631
(lp3430
V\u56d1
asV\u9333
(lp3431
V\u9530
asV\u99c4
(lp3432
V\u99b1
asV\u93c8
(lp3433
V\u94fe
asV\u50ca
(lp3434
V\u4ed9
aV\u4ed9
asV\u6353
(lp3435
V\u63f6
asV\u5d57
(lp3436
V\u6b72
asV\u7bd8
(lp3437
V\U00025b20
asV\u575b
(lp3438
V\u58c7
aV\u58c7
asV\u69e4
(lp3439
V\u68bf
asV\u9aee
(lp3440
V\u53d1
asV\u7671
(lp3441
V\u762b
asV\u57f0
(lp3442
V\u91c7
asV\u7075
(lp3443
V\u9748
asV\u51f4
(lp3444
V\u6191
aV\u6191
asV\u6483
(lp3445
V\u64ca
asV\u6a87
(lp3446
V\u69dc
asV\u8f0a
(lp3447
V\u8f7e
asV\u9b12
(lp3448
V\u3431
asV\u4b9d
(lp3449
V\U000299f0
asV\u7020
(lp3450
V\u6f46
asV\u7c28
(lp3451
V\u6812
asV\u8e34
(lp3452
V\u8e0a
aV\u8e0a
asV\u5136
(lp3453
V\u349e
asV\u75b9
(lp3454
V\u80d7
asV\u9438
(lp3455
V\u94ce
aV\u922c
asV\U000281c1
(lp3456
V\U00027fc8
asV\U00026f4a
(lp3457
V\u9a4a
asV\u93cd
(lp3458
V\u9559
asV\u754e
(lp3459
V\u753d
asV\u99d1
(lp3460
V\u9a7d
asV\u62d7
(lp3461
V\u629d
asV\u8156
(lp3462
V\u80e8
asV\u6edf
(lp3463
V\u7054
asV\u5c68
(lp3464
V\u5c66
asV\u9f6a
(lp3465
V\u9f8a
asV\u55f9
(lp3466
V\U0002a84f
asV\u7478
(lp3467
V\u74b8
asV\U000217be
(lp3468
V\u5ae9
asV\u9eff
(lp3469
V\u9f0b
asV\u8080
(lp3470
V\u807f
asV\u558e
(lp3471
V\u359e
asV\uf911
(lp3472
V\u87ba
asV\u6196
(lp3473
V\u616d
asV\u8b1d
(lp3474
V\u8c22
asV\u4e1f
(lp3475
V\u4e22
aV\u4e22
asV\u5423
(lp3476
V\u551a
asV\u9725
(lp3477
V\u6fdb
asV\u79a6
(lp3478
V\u5fa1
asV\u662f
(lp3479
V\u6630
asV\u6c33
(lp3480
V\u6c32
asV\u5abc
(lp3481
V\u5aaa
asV\u66c4
(lp3482
V\u6654
aV\u66c5
asV\u904b
(lp3483
V\u8fd0
asV\u534d
(lp3484
V\u5350
asV\u964f
(lp3485
V\u968b
asV\u5951
(lp3486
V\uf909
asV\u9c53
(lp3487
V\u9c54
asV\u5f55
(lp3488
V\u9304
asV\u7ed4
(lp3489
V\u8932
asV\u6559
(lp3490
V\u654e
aV\u654e
asV\u8adc
(lp3491
V\u8c0d
asV\u53e2
(lp3492
V\u6a37
aV\u4e1b
asV\u59e6
(lp3493
V\u5978
asV\u65ee
(lp3494
V\u65ed
asV\u5277
(lp3495
V\u5257
aV\u93df
asV\u71f6
(lp3496
V\u3db6
asV\u34f8
(lp3497
V\u65b2
asV\u6583
(lp3498
V\u6bd9
asV\u8806
(lp3499
V\u867f
asV\u8e0a
(lp3500
V\u8e34
asV\u940e
(lp3501
V\U00028c53
asV\u5910
(lp3502
V\u657b
asV\u7d93
(lp3503
V\U00026007
aV\u7ecf
aV\u7d4c
asV\u9a12
(lp3504
V\u9a37
asV\u5f14
(lp3505
V\u540a
asV\u8f9f
(lp3506
V\u907f
asV\u95a3
(lp3507
V\u9601
asV\u56a5
(lp3508
V\u54bd
aV\uf99e
asV\u9ba7
(lp3509
V\u9bf7
asV\u5ca9
(lp3510
V\u5dd6
aV\u5dd6
asV\u5036
(lp3511
V\u4ff1
asV\u8cc9
(lp3512
V\u6064
asV\u51cb
(lp3513
V\u96d5
asV\u6e4a
(lp3514
V\u51d1
aV\u51d1
asV\U000298d1
(lp3515
V\u4bc3
asV\u8056
(lp3516
V\u5723
aV\u5723
aV\u580a
asV\u6fdf
(lp3517
V\u6d4e
asV\u9262
(lp3518
V\u7f3d
asV\u5764
(lp3519
V\u5803
asV\u9866
(lp3520
V\u6194
asV\u636c
(lp3521
V\u64ab
asV\u87ef
(lp3522
V\u86f2
asV\u8df3
(lp3523
V\u8d92
asV\u93f7
(lp3524
V\u9564
asV\u99fb
(lp3525
V\U0002b623
asV\u8784
(lp3526
V\u86f3
asV\u4e8a
(lp3527
V\u4e8b
aV\u4e8b
asV\u720d
(lp3528
V\u70c1
asV\u938c
(lp3529
V\u942e
asV\u370f
(lp3530
V\u36e3
asV\u7e15
(lp3531
V\u7f0a
asV\u9f94
(lp3532
V\u9f9a
asV\u8a1d
(lp3533
V\u8bb6
asV\u72a2
(lp3534
V\u728a
asV\u9c29
(lp3535
V\u9b5f
aV\u9cd0
asV\u8ab2
(lp3536
V\u8bfe
asV\u793b
(lp3537
V\u793a
asV\u5bbc
(lp3538
V\u5bc7
asV\u61c0
(lp3539
V\U00022653
asV\u67c4
(lp3540
V\u68c5
asV\u5851
(lp3541
V\u5850
asV\u79d0
(lp3542
V\u8018
aV\u8018
asV\u9d53
(lp3543
V\u9e41
asV\u5e55
(lp3544
V\u5e59
asV\u7061
(lp3545
V\u3cd5
asV\u52e2
(lp3546
V\u52bf
asV\u7665
(lp3547
V\u75c7
asV\u97e4
(lp3548
V\u896a
asV\u7c69
(lp3549
V\u7b3e
asV\u9de8
(lp3550
V\U0002a24a
asV\u5eea
(lp3551
V\u7a1f
asV\u8e75
(lp3552
V\u8e74
asV\u5377
(lp3553
V\u6372
asV\u9479
(lp3554
V\u9569
asV\u5f7f
(lp3555
V\u9af4
asV\u7cfe
(lp3556
V\u7cfa
aV\u7ea0
aV\u7cfa
asV\u8d0a
(lp3557
V\u8cdb
aV\u8d5e
aV\u8cdb
asV\U00025a10
(lp3558
V\U000259c2
asV\u7e93
(lp3559
V\u7f28
asV\u9912
(lp3560
V\u9927
aV\u9981
asV\u8c9f
(lp3561
V\u8d20
asV\u96a3
(lp3562
V\u9130
aV\u9130
asV\u5fa9
(lp3563
V\u590d
aV\u8986
asV\u802c
(lp3564
V\u8027
asV\u6bb1
(lp3565
V\u6bb2
asV\u77b9
(lp3566
V\u66d6
asV\u9638
(lp3567
V\u9628
asV\uf9bd
(lp3568
V\u5c3f
asV\u983c
(lp3569
V\u8cf4
aV\u8cf4
asV\u5f3e
(lp3570
V\u5f48
asV\u6142
(lp3571
V\u607f
aV\u607f
asV\u5ed3
(lp3572
V\ufa0b
asV\uf952
(lp3573
V\u52d2
asV\u6adb
(lp3574
V\u6809
asV\u855a
(lp3575
V\u843c
asV\u76e3
(lp3576
V\u76d1
asV\u9162
(lp3577
V\u918b
asV\u78e7
(lp3578
V\u789b
asV\u9b66
(lp3579
V\u9bca
asV\u9d6a
(lp3580
V\u9e4c
asV\u84ef
(lp3581
V\u82c1
asV\u90f7
(lp3582
V\u9109
aV\u9109
asV\u9afb
(lp3583
V\u4bfb
asV\u6505
(lp3584
V\u6522
aV\u6522
asV\u7b11
(lp3585
V\u54b2
aV\u54b2
asV\u5992
(lp3586
V\u59ac
aV\u59ac
asV\u7d15
(lp3587
V\u7eb0
asV\u659a
(lp3588
V\u659d
asV\u9321
(lp3589
V\u951c
asV\u642f
(lp3590
V\u638f
aV\u638f
asV\u87ae
(lp3591
V\u8743
aV\u45d6
asV\u89b2
(lp3592
V\u89d0
asV\u93b6
(lp3593
V\u9fd4
asV\u7a3b
(lp3594
V\u7a32
asV\u64c4
(lp3595
V\u865c
aV\u63b3
aV\uf930
asV\u924b
(lp3596
V\u5228
aV\u94c7
asV\u88dc
(lp3597
V\u8865
asV\u4fde
(lp3598
V\u516a
aV\u516a
asV\u51e2
(lp3599
V\u51e1
aV\u51e1
asV\u7565
(lp3600
V\u7567
aV\u7567
asV\u5be6
(lp3601
V\u5bd4
aV\u5b9e
aV\u5b9f
asV\u7f69
(lp3602
V\u4207
asV\u9ee8
(lp3603
V\u515a
asV\u816d
(lp3604
V\u9f76
asV\u8b71
(lp3605
V\u5584
asV\u5077
(lp3606
V\u5078
aV\u5078
asV\u73f6
(lp3607
V\u7445
asV\u75fa
(lp3608
V\u75f9
asV\u38fc
(lp3609
V\u5fcd
asV\u8002
(lp3610
V\u8001
asV\u510c
(lp3611
V\u50e5
asV\u758f
(lp3612
V\u758e
asV\u7f93
(lp3613
V\u8c5d
asV\u9812
(lp3614
V\u9881
aV\u670c
asV\u5d14
(lp3615
V\u78ea
asV\u691c
(lp3616
V\u6aa2
asV\u7524
(lp3617
V\u8564
asV\u812c
(lp3618
V\u80de
asV\u6cb5
(lp3619
V\u6fd4
asV\u9738
(lp3620
V\u8987
aV\u8987
asV\u78bd
(lp3621
V\u40b5
asV\u993c
(lp3622
V\u9969
asV\u6042
(lp3623
V\u609b
asV\u6a46
(lp3624
V\u7121
asV\u8ec9
(lp3625
V\U00028257
asV\u845a
(lp3626
V\u6939
asV\u5360
(lp3627
V\u4f54
asV\uf9e7
(lp3628
V\u88cf
asV\u9a66
(lp3629
V\u9aa6
asV\u5f68
(lp3630
V\u5f72
asV\u83eb
(lp3631
V\u5807
aV\u5807
asV\u8ff3
(lp3632
V\u5f91
asV\u91f7
(lp3633
V\u948d
asV\u56f9
(lp3634
V\uf9a9
asV\u58fd
(lp3635
V\u5bff
asV\uf97c
(lp3636
V\u826f
asV\u9dff
(lp3637
V\u4d19
asV\u8380
(lp3638
V\u8fb2
asV\u6e09
(lp3639
V\u6d89
asV\u9b90
(lp3640
V\u9c90
asV\u7c15
(lp3641
V\u7afb
asV\u649a
(lp3642
V\uf991
asV\u9221
(lp3643
V\u937e
asV\u5723
(lp3644
V\u8056
asV\u9425
(lp3645
V\u4985
asV\U00029df0
(lp3646
V\U00029f84
asV\u632b
(lp3647
V\u7e72
asV\u92b6
(lp3648
V\U00028c47
asV\u7b3b
(lp3649
V\u7b47
asV\u7d3f
(lp3650
V\u7ed0
asV\u63c0
(lp3651
V\u62e3
asV\u8743
(lp3652
V\u87ae
asV\u4e49
(lp3653
V\u7fa9
asV\u934b
(lp3654
V\u9505
asV\U000293a2
(lp3655
V\U000293fe
asV\U000289dc
(lp3656
V\u4981
asV\u4ede
(lp3657
V\u4eed
asV\u95e4
(lp3658
V\u961b
asV\u7e69
(lp3659
V\u42f2
aV\u7ef3
aV\u7e04
asV\U0002456f
(lp3660
V\u6f3f
asV\u8a71
(lp3661
V\u46e1
aV\u8bdd
asV\u68f2
(lp3662
V\u6816
aV\u6816
asV\u8c75
(lp3663
V\u474b
asV\u8702
(lp3664
V\u882d
asV\u6e87
(lp3665
V\u6f0a
asV\u8b0a
(lp3666
V\u8a64
aV\u8c0e
asV\u8c9b
(lp3667
V\u737e
asV\U00029949
(lp3668
V\U000299f1
asV\u3722
(lp3669
V\U000217b1
asV\u4f32
(lp3670
V\u4f60
asV\u8a34
(lp3671
V\u612c
aV\u8bc9
asV\ufa08
(lp3672
V\u884c
asV\u71b9
(lp3673
V\u71ba
asV\u9038
(lp3674
V\ufa25
asV\u7fbd
(lp3675
V\ufa1e
asV\u593e
(lp3676
V\u5939
asV\u4ec7
(lp3677
V\u8b90
asV\u97cd
(lp3678
V\u97e8
asV\u58d3
(lp3679
V\u538b
aV\u5727
asV\u9bd5
(lp3680
V\u9caf
asV\u6cdb
(lp3681
V\u6c4e
aV\u6c4e
asV\u6adf
(lp3682
V\u680e
asV\u5264
(lp3683
V\u5291
asV\u96f7
(lp3684
V\uf949
asV\u51f9
(lp3685
V\U00020544
asV\u7e7c
(lp3686
V\u7ee7
asV\u6305
(lp3687
V\u6306
asV\u5f92
(lp3688
V\U00028452
asV\u9a94
(lp3689
V\u9b03
asV\u8f1d
(lp3690
V\u7147
aV\u8f89
asV\u5023
(lp3691
V\u4eff
aV\u4eff
asV\u642b
(lp3692
V\u642c
asV\u622f
(lp3693
V\u6232
aV\u6232
asV\u4cb0
(lp3694
V\U0002a242
asV\u8fb2
(lp3695
V\u8380
aV\u519c
asV\u95b6
(lp3696
V\u960a
asV\u7c3b
(lp3697
V\u6a9b
asV\u5ebc
(lp3698
V\u5ece
asV\u7a3f
(lp3699
V\u7a3e
asV\u64c0
(lp3700
V\u625e
asV\u8043
(lp3701
V\u803c
asV\u924f
(lp3702
V\u92e4
asV\u9853
(lp3703
V\u989b
asV\u6159
(lp3704
V\u615a
aV\u615a
asV\u6f5d
(lp3705
V\u3d14
asV\u92e4
(lp3706
V\u924f
aV\u9504
asV\uf969
(lp3707
V\u6578
asV\u8d71
(lp3708
V\u8d70
asV\u5a7f
(lp3709
V\u58fb
aV\u805f
asV\uf9fe
(lp3710
V\u8336
asV\u8602
(lp3711
V\u854a
asV\u6f87
(lp3712
V\u6d9d
asV\u758b
(lp3713
V\u5339
aV\u5339
asV\u8a0a
(lp3714
V\u8baf
asV\u5d10
(lp3715
V\u5d11
asV\uf993
(lp3716
V\u7149
asV\u8797
(lp3717
V\u87b3
aV\u87b3
asV\u4e9d
(lp3718
V\u9f4a
aV\u9f4a
asV\uf928
(lp3719
V\u5eca
asV\u6cb1
(lp3720
V\u6cb2
aV\u6cb2
asV\u8d30
(lp3721
V\u4e8c
asV\u4e32
(lp3722
V\uf905
asV\u5436
(lp3723
V\u8a25
aV\u5450
asV\u70b9
(lp3724
V\u9ede
asV\u523a
(lp3725
V\u523e
asV\u6642
(lp3726
V\u65f6
asV\u82c5
(lp3727
V\u5208
asV\u88c9
(lp3728
V\u8903
asV\u6a4a
(lp3729
V\u69b4
asV\u704e
(lp3730
V\u7054
asV\u7e52
(lp3731
V\u7f2f
asV\u9ad5
(lp3732
V\u81cf
aV\u9acc
aV\u81cf
asV\u885e
(lp3733
V\u885b
aV\u885b
asV\u71e3
(lp3734
V\u71f7
asV\u5968
(lp3735
V\u596c
asV\u9a6a
(lp3736
V\u9a8a
asV\u83ef
(lp3737
V\u534e
aV\u5d0b
asV\u6b74
(lp3738
V\u6b77
asV\u50f9
(lp3739
V\u4ef7
asV\u5efd
(lp3740
V\u56de
asV\u9bff
(lp3741
V\u9cca
asV\u8580
(lp3742
V\u8570
asV\uf9bf
(lp3743
V\u6a02
asV\u8988
(lp3744
V\u6838
asV\u4a8a
(lp3745
V\u9f93
asV\u760d
(lp3746
V\u75a1
asV\u978c
(lp3747
V\u978d
asV\u7c11
(lp3748
V\u84d1
asV\ufa15
(lp3749
V\u51de
asV\u8019
(lp3750
V\u9200
asV\u9421
(lp3751
V\u9435
asV\u5123
(lp3752
V\U000201b2
asV\u9225
(lp3753
V\u94ac
asV\u7aaa
(lp3754
V\u6d3c
asV\u8eb2
(lp3755
V\u8eb1
aV\u8eb1
asV\u98be
(lp3756
V\U0002966b
asV\U00022cc6
(lp3757
V\u646e
asV\u954b
(lp3758
V\u9482
asV\u7bd4
(lp3759
V\u7b7c
asV\u81d8
(lp3760
V\u814a
asV\u42da
(lp3761
V\u433b
asV\u95e0
(lp3762
V\u9613
asV\u93e4
(lp3763
V\u9542
asV\u6ef2
(lp3764
V\u6e17
asV\u8a75
(lp3765
V\u8bdc
asV\u74f6
(lp3766
V\u7f3e
aV\u7f3e
asV\u9e7d
(lp3767
V\u76d0
asV\u5b7f
(lp3768
V\u5b6a
asV\u6283
(lp3769
V\u62da
asV\u768b
(lp3770
V\u7690
asV\u540c
(lp3771
V\u4edd
aV\u540c
aV\u4edd
asV\u9d12
(lp3772
V\u9e30
asV\u8e9b
(lp3773
V\u8e97
aV\u8e97
asV\u92a3
(lp3774
V\u94f7
asV\u65ad
(lp3775
V\u65b7
asV\u842c
(lp3776
V\u4e07
asV\u6fb1
(lp3777
V\u6dc0
asV\u8e30
(lp3778
V\u903e
asV\u34b7
(lp3779
V\u8208
asV\u9238
(lp3780
V\u94b9
asV\u513a
(lp3781
V\u50a9
asV\u7dbd
(lp3782
V\u7ef0
asV\u9c3c
(lp3783
V\u9cdb
asV\u5b3e
(lp3784
V\u61f6
asV\u87c1
(lp3785
V\u868a
aV\u868a
asV\u694a
(lp3786
V\u6768
asV\u95cd
(lp3787
V\u9607
asV\u344c
(lp3788
V\u5c29
asV\u50cf
(lp3789
V\u8c61
asV\u734e
(lp3790
V\u5956
aV\u596c
asV\u99d5
(lp3791
V\u9a7e
asV\u64d7
(lp3792
V\u5288
asV\u68df
(lp3793
V\u680b
asV\u5660
(lp3794
V\u54d2
asV\u7ce7
(lp3795
V\u7cae
aV\u7cae
asV\u9f66
(lp3796
V\u5543
aV\u9f88
asV\u80ef
(lp3797
V\u9abb
asV\u4ff1
(lp3798
V\u5036
asV\u8af3
(lp3799
V\u8c19
asV\u5dfd
(lp3800
V\u5dfa
asV\u7c7c
(lp3801
V\u79c8
asV\u98ff
(lp3802
V\u9973
asV\u6701
(lp3803
V\u3b31
asV\u4f86
(lp3804
V\u6765
aV\u6765
aV\uf92d
asV\u538e
(lp3805
V\u7825
asV\u9e90
(lp3806
V\u9e9f
asV\uf915
(lp3807
V\u6d1b
asV\u619a
(lp3808
V\u60ee
asV\u6b9e
(lp3809
V\u6b92
aV\u9695
asV\u9721
(lp3810
V\u9722
asV\u9b29
(lp3811
V\u960b
asV\u79aa
(lp3812
V\u7985
asV\U000283ae
(lp3813
V\U00028409
asV\u4eb0
(lp3814
V\u4eac
asV\u6a33
(lp3815
V\u686a
asV\u8db2
(lp3816
V\u8db1
asV\u783f
(lp3817
V\u7926
asV\U000260c4
(lp3818
V\U00026217
asV\u8c47
(lp3819
V\u4736
asV\u6ac8
(lp3820
V\u51f3
asV\u964b
(lp3821
V\uf951
asV\u554d
(lp3822
V\u5428
asV\uf9cc
(lp3823
V\u7409
asV\u5f51
(lp3824
V\u5f50
aV\u5f50
asV\u5955
(lp3825
V\u5f08
asV\u8cdc
(lp3826
V\u8d50
asV\u96e0
(lp3827
V\u4ec7
asV\u7165
(lp3828
V\u7115
aV\u70c9
asV\u90e4
(lp3829
V\u90c4
asV\u59ea
(lp3830
V\u4f84
asV\u856d
(lp3831
V\u8427
asV\u63ee
(lp3832
V\u6325
asV\u71fa
(lp3833
V\u7187
asV\u4700
(lp3834
V\u4727
asV\u6383
(lp3835
V\u57fd
aV\u626b
asV\u6d87
(lp3836
V\u6cfe
asV\u718f
(lp3837
V\u71fb
asV\u920e
(lp3838
V\u9264
aV\u9264
asV\u9c12
(lp3839
V\u9cc6
asV\u93a3
(lp3840
V\u84e5
asV\u7b28
(lp3841
V\u3912
asV\u8934
(lp3842
V\u8913
asV\u72b9
(lp3843
V\u7336
asV\u9338
(lp3844
V\u94fc
asV\u7cbd
(lp3845
V\u7cc9
aV\u7ced
asV\u6442
(lp3846
V\u651d
asV\u8ac9
(lp3847
V\u9935
aV\u8bff
asV\u51cf
(lp3848
V\u6e1b
asV\u9ed1
(lp3849
V\u9ed2
asV\u5bd3
(lp3850
V\u5ebd
asV\u65d7
(lp3851
V\u65c2
asV\u8656
(lp3852
V\u547c
asV\u8a5e
(lp3853
V\u8bcd
asV\u9462
(lp3854
V\u4968
asV\u81ef
(lp3855
V\u768b
asV\u6f70
(lp3856
V\u6e83
asV\u52f9
(lp3857
V\u5305
asV\u7378
(lp3858
V\u517d
asV\u5cfd
(lp3859
V\u5ce1
asV\u99ff
(lp3860
V\u9a8f
asV\u4e86
(lp3861
V\uf9ba
asV\u958c
(lp3862
V\u95f6
asV\u528e
(lp3863
V\u5294
asV\u7e11
(lp3864
V\u7f23
asV\u9f90
(lp3865
V\u9f8e
aV\u5e9e
aV\u5390
asV\u7815
(lp3866
V\u788e
asV\u6696
(lp3867
V\u7156
aV\u7156
asV\u609a
(lp3868
V\U00022960
asV\u9621
(lp3869
V\u4edf
asV\u74a2
(lp3870
V\u7409
asV\u9025
(lp3871
V\u56de
asV\u5d27
(lp3872
V\u5d69
asV\u78aa
(lp3873
V\u7827
aV\u7827
asV\u8cb2
(lp3874
V\u8d40
asV\U00022835
(lp3875
V\u60dd
asV\u7f3b
(lp3876
V\u7f36
asV\u5dbc
(lp3877
V\u5c7f
asV\u793f
(lp3878
V\u79b4
asV\U0002114f
(lp3879
V\U00020ca5
asV\uf9d4
(lp3880
V\u502b
asV\u7661
(lp3881
V\u75f4
asV\u91e4
(lp3882
V\u9490
asV\u7a69
(lp3883
V\u349a
aV\u7a33
asV\u9be8
(lp3884
V\u9cb8
asV\u58ea
(lp3885
V\u5846
asV\u7afe
(lp3886
V\u7bea
asV\u8b02
(lp3887
V\u8c13
asV\u4e04
(lp3888
V\u4e0a
asV\u8106
(lp3889
V\u8103
asV\u7e8f
(lp3890
V\u7f20
asV\u9d0e
(lp3891
V\u9dd7
asV\u5010
(lp3892
V\u500f
asV\u9312
(lp3893
V\u9515
asV\u5614
(lp3894
V\u5455
asV\u7820
(lp3895
V\u5ca8
asV\u55a9
(lp3896
V\u55bb
asV\u8030
(lp3897
V\u6acc
asV\u7db9
(lp3898
V\u7efa
asV\u553e
(lp3899
V\u6db6
asV\uf9c8
(lp3900
V\u677b
asV\u85c9
(lp3901
V\u8024
aV\u501f
asV\u58cb
(lp3902
V\u57b1
asV\u5ecf
(lp3903
V\u5ec4
asV\u7d4e
(lp3904
V\u7ed7
asV\u91d1
(lp3905
V\u91d2
aV\u9485
asV\u8956
(lp3906
V\u8884
asV\u60db
(lp3907
V\u60fd
asV\u9b62
(lp3908
V\u9c7e
asV\u5e64
(lp3909
V\u5e63
asV\u5468
(lp3910
V\u9031
asV\u6674
(lp3911
V\ufa12
asV\u6901
(lp3912
V\u69e8
asV\u5d8e
(lp3913
V\u851a
asV\u9090
(lp3914
V\u9026
asV\u9921
(lp3915
V\u9985
asV\u5c23
(lp3916
V\u5c22
asV\u77aa
(lp3917
V\u77a0
aV\u7719
asV\u8dae
(lp3918
V\u8e81
asV\u95be
(lp3919
V\u9608
asV\u6ec4
(lp3920
V\u6ca7
asV\u984b
(lp3921
V\u816e
asV\u5151
(lp3922
V\u514c
asV\uf9fb
(lp3923
V\u7099
asV\uf961
(lp3924
V\u7387
asV\u98e0
(lp3925
V\u98df
aV\u9963
aV\u98df
asV\u5be2
(lp3926
V\u5bdd
asV\u7f65
(lp3927
V\u7f82
asV\u51e6
(lp3928
V\u8655
asV\u8b6d
(lp3929
V\u46fc
asV\uf9f6
(lp3930
V\u81e8
asV\U00029d79
(lp3931
V\U00029f7b
asV\u7ffa
(lp3932
V\u7ff1
aV\u7ff1
asV\u75fe
(lp3933
V\u75b4
aV\u75b4
asV\u8a02
(lp3934
V\u8ba2
asV\uf98b
(lp3935
V\u66c6
asV\u860a
(lp3936
V\u8574
asV\u5b0c
(lp3937
V\u649f
aV\u5a07
asV\u5110
(lp3938
V\u50a7
asV\u9212
(lp3939
V\u9491
asV\uf920
(lp3940
V\u9e1e
asV\u93a7
(lp3941
V\u94e0
asV\u54a9
(lp3942
V\u54f6
asV\u6aad
(lp3943
V\U00023634
asV\u8b2c
(lp3944
V\u8c2c
asV\u7cb9
(lp3945
V\u7c8b
asV\u6046
(lp3946
V\u6052
aV\u6052
asV\u6bd7
(lp3947
V\u6bd8
aV\u6bd8
asV\U00029811
(lp3948
V\u9802
asV\u7de3
(lp3949
V\u7e01
aV\u7f18
aV\u7e01
asV\u9a62
(lp3950
V\u99bf
aV\u9a74
asV\u8fef
(lp3951
V\u9003
aV\u9003
asV\u6774
(lp3952
V\u9528
asV\u9bf7
(lp3953
V\u9ba7
aV\u9cc0
asV\u737c
(lp3954
V\u7315
asV\u97ff
(lp3955
V\u54cd
aV\u54cd
asV\u8980
(lp3956
V\u897f
asV\u6e05
(lp3957
V\u6df8
asV\u6409
(lp3958
V\u3a41
asV\u8588
(lp3959
V\u835f
asV\ufa0d
(lp3960
V\u55c0
asV\u5292
(lp3961
V\u528d
asV\u9821
(lp3962
V\u9889
asV\u5327
(lp3963
V\u7bcb
asV\u692b
(lp3964
V\u6a3f
asV\u8cae
(lp3965
V\u4e8c
asV\u98b6
(lp3966
V\u98d3
asV\u5db8
(lp3967
V\u5d58
asV\u9eba
(lp3968
V\u9eb5
asV\u69c0
(lp3969
V\u7a3f
asV\u4e45
(lp3970
V\u4e46
asV\u6fc4
(lp3971
V\u3ce1
asV\u8347
(lp3972
V\u8395
asV\u65c8
(lp3973
V\u65d2
asV\u994b
(lp3974
V\u9988
aV\u993d
asV\u9f4f
(lp3975
V\u9f51
aV\u97f2
asV\u5051
(lp3976
V\u343d
asV\u71d0
(lp3977
V\uf9ee
asV\u5655
(lp3978
V\u5645
asV\u6c59
(lp3979
V\u6c5a
asV\u7469
(lp3980
V\u83b9
aV\uf9ae
asV\u95e8
(lp3981
V\u9580
asV\u56ea
(lp3982
V\u56f1
aV\u56f1
asV\u8a6d
(lp3983
V\u8be1
asV\u4573
(lp3984
V\U00026c34
asV\u8306
(lp3985
V\u8305
asV\u9f0e
(lp3986
V\U0002a502
asV\u9112
(lp3987
V\u90b9
asV\ufa20
(lp3988
V\u8612
asV\u57a9
(lp3989
V\u8056
asV\u7628
(lp3990
V\u7672
asV\u65b5
(lp3991
V\u65b2
asV\u8434
(lp3992
V\u835d
asV\u7fb9
(lp3993
V\u7fae
aV\u7fae
asV\u903c
(lp3994
V\u506a
asV\u4ec3
(lp3995
V\u505c
asV\u6942
(lp3996
V\u67e5
asV\u6346
(lp3997
V\u7d91
aV\u7d91
asV\u5acb
(lp3998
V\u5b1d
asV\u93d1
(lp3999
V\u955d
asV\u56d3
(lp4000
V\u9f67
aV\u5699
asV\u7152
(lp4001
V\u709c
asV\u95d5
(lp4002
V\u9619
asV\u68d7
(lp4003
V\u67a3
asV\u8b56
(lp4004
V\u8c2e
asV\u4e58
(lp4005
V\u4e57
asV\u7ee3
(lp4006
V\u7e61
asV\u9962
(lp4007
V\u9995
asV\u5c64
(lp4008
V\u5c42
asV\u5668
(lp4009
V\u5650
aV\u5650
asV\u8aeb
(lp4010
V\u8c0f
asV\u7e78
(lp4011
V\u4341
asV\u51fd
(lp4012
V\u51fe
asV\uf93f
(lp4013
V\u9304
asV\uf90d
(lp4014
V\u61f6
asV\u5192
(lp4015
V\U0002f8d2
asV\u8f19
(lp4016
V\u8f12
asV\u6d9a
(lp4017
V\u6d97
asV\uf9a2
(lp4018
V\u5ec9
asV\u6a2b
(lp4019
V\u3b74
asV\u6c2f
(lp4020
V\u7da0
asV\u8fae
(lp4021
V\u8fab
asV\U0002a535
(lp4022
V\U0002a52d
asV\u9bb6
(lp4023
V\u9caa
asV\u9dba
(lp4024
V\u9e61
asV\u743f
(lp4025
V\u73f2
asV\u97be
(lp4026
V\u9774
asV\u9a4b
(lp4027
V\U000299ef
asV\u78cc
(lp4028
V\U00027c0a
asV\u5555
(lp4029
V\u54b7
asV\u74d4
(lp4030
V\u748e
asV\u6f59
(lp4031
V\u6e88
asV\u59e2
(lp4032
V\u5a1f
asV\u7d65
(lp4033
V\u97b4
asV\U00029ce4
(lp4034
V\U00029c92
asV\u61f2
(lp4035
V\u60e9
aV\u60e9
asV\u6187
(lp4036
V\u61a9
aV\u61a9
asV\u7b8b
(lp4037
V\u724b
aV\u7b3a
aV\u724b
asV\u840a
(lp4038
V\u83b1
asV\u7d8f
(lp4039
V\u7ee5
asV\u9e0e
(lp4040
V\u9daf
asV\u611c
(lp4041
V\u60ec
asV\u859f
(lp4042
V\u861e
aV\u83b6
asV\u7b20
(lp4043
V\uf9f8
asV\u62b1
(lp4044
V\u6294
asV\u8534
(lp4045
V\u9ebb
asV\uf934
(lp4046
V\u8001
asV\u8ac1
(lp4047
V\u555c
asV\u8cc5
(lp4048
V\u4f85
aV\u8d45
asV\u8a56
(lp4049
V\u8bd0
asV\u63db
(lp4050
V\u6362
asV\u8c5a
(lp4051
V\u8c58
asV\u865e
(lp4052
V\U000299a2
asV\u9862
(lp4053
V\u989f
asV\u9266
(lp4054
V\u94b2
asV\u8def
(lp4055
V\uf937
asV\u5ef9
(lp4056
V\u8feb
asV\u6a01
(lp4057
V\u6869
asV\u8b80
(lp4058
V\u8bfb
aV\uf95a
asV\u6c05
(lp4059
V\u9de9
asV\u8d84
(lp4060
V\u8dd9
asV\u9594
(lp4061
V\u95f5
asV\U00025edf
(lp4062
V\u7cef
asV\u9c25
(lp4063
V\u9ccf
asV\u6733
(lp4064
V\u6777
asV\u80b2
(lp4065
V\u6bd3
aV\u6bd3
asV\uf937
(lp4066
V\u8def
asV\u733b
(lp4067
V\u72f2
asV\u753f
(lp4068
V\u6c13
asV\u96be
(lp4069
V\u96e3
asV\u6bc0
(lp4070
V\u6bc1
asV\u584d
(lp4071
V\u5818
asV\u79cc
(lp4072
V\u79cb
asV\u8fd8
(lp4073
V\u9084
asV\u7a61
(lp4074
V\u7a51
asV\u3f63
(lp4075
V\u57df
asV\u58e2
(lp4076
V\u575c
asV\u7c65
(lp4077
V\u9fa0
asV\u52e6
(lp4078
V\u527f
asV\u7669
(lp4079
V\u765e
aV\uf90e
asV\u8271
(lp4080
V\u8270
asV\u60f2
(lp4081
V\u607d
asV\u7af6
(lp4082
V\u8aa9
aV\u7ade
aV\u7af8
asV\u9e79
(lp4083
V\u54b8
asV\u537b
(lp4084
V\u5374
aV\u5374
asV\u7cfa
(lp4085
V\u7cfe
aV\u7cfe
asV\u7c8b
(lp4086
V\u7cb9
asV\u5e0c
(lp4087
V\u7a00
asV\u990e
(lp4088
V\u9979
asV\u5214
(lp4089
V\u6289
asV\u8e97
(lp4090
V\u8e9b
aV\u8e9b
asV\u661c
(lp4091
V\u967d
asV\u829f
(lp4092
V\U000206b9
asV\u7c20
(lp4093
V\u76d9
asV\u98a3
(lp4094
V\u7e87
asV\u96a7
(lp4095
V\U0002145e
asV\u51a9
(lp4096
V\u5beb
asV\u7028
(lp4097
V\u6fd1
aV\u702c
asV\U00028e2c
(lp4098
V\u9663
asV\uf9b9
(lp4099
V\u60e1
asV\u9838
(lp4100
V\u9888
asV\U00028bc5
(lp4101
V\u497f
asV\u81c9
(lp4102
V\u8138
asV\U0002a048
(lp4103
V\U0002a249
asV\uf94e
(lp4104
V\u6f0f
asV\U000298b8
(lp4105
V\U000299f3
asV\u8b5a
(lp4106
V\u8ac7
aV\u8c2d
asV\u78e3
(lp4107
V\u789c
asV\u9f62
(lp4108
V\u9f61
asV\u76e7
(lp4109
V\u5362
asV\u8ceb
(lp4110
V\u9f4e
asV\u80f3
(lp4111
V\u8090
asV\uf912
(lp4112
V\u88f8
asV\u9ef7
(lp4113
V\u9ee9
asV\u57fd
(lp4114
V\u6383
asV\u767c
(lp4115
V\u53d1
aV\u767a
asV\u4f82
(lp4116
V\u8a17
asV\u8a84
(lp4117
V\u8bd4
asV\u6109
(lp4118
V\u6108
asV\u8088
(lp4119
V\u8087
asV\u4e17
(lp4120
V\u4e16
asV\u871d
(lp4121
V\u871e
asV\u9b25
(lp4122
V\u6597
aV\u9b2c
asV\u6c2b
(lp4123
V\u6c22
asV\u4eac
(lp4124
V\u4eb0
asV\u6033
(lp4125
V\u604d
asV\u7e37
(lp4126
V\u7f15
asV\u9bba
(lp4127
V\u9c9d
asV\u9a4f
(lp4128
V\u9aa3
asV\u5355
(lp4129
V\u55ae
asV\u6959
(lp4130
V\u8302
asV\u675d
(lp4131
V\u67c2
asV\u7d61
(lp4132
V\u7edc
asV\u7169
(lp4133
V\u70e6
asV\u90e8
(lp4134
V\u5369
asV\u53ea
(lp4135
V\u5b50
aV\u6b62
asV\u5e77
(lp4136
V\u4e26
asV\u7df6
(lp4137
V\u7f0f
asV\ufa0a
(lp4138
V\u898b
asV\u7bfa
(lp4139
V\u68d1
asV\u527f
(lp4140
V\U000207b0
aV\u52e6
asV\u71fe
(lp4141
V\u7118
asV\u8406
(lp4142
V\u84d6
aV\u853d
asV\u820a
(lp4143
V\u65e7
aV\u65e7
asV\u5f0c
(lp4144
V\u640b
asV\u7b8f
(lp4145
V\u7b5d
asV\u980e
(lp4146
V\u9880
asV\u7193
(lp4147
V\U000241a1
asV\u4899
(lp4148
V\u6557
asV\u6918
(lp4149
V\u695a
asV\u5ca1
(lp4150
V\u5d17
aV\u5188
asV\u97a7
(lp4151
V\u97a6
asV\U00022dab
(lp4152
V\U00022ade
asV\u8f2c
(lp4153
V\u8f8c
asV\u62b5
(lp4154
V\u627a
asV\U00023fb7
(lp4155
V\u3ce2
asV\u9938
(lp4156
V\U0002980c
asV\U000281de
(lp4157
V\U0002816b
asV\u8cc1
(lp4158
V\u8d32
asV\u5dcb
(lp4159
V\u5cbf
asV\u624a
(lp4160
V\u6245
asV\u784e
(lp4161
V\u7814
asV\u7652
(lp4162
V\u7609
aV\u6108
asV\u65db
(lp4163
V\u5e61
asV\u475c
(lp4164
V\u72fb
asV\u805e
(lp4165
V\u95fb
asV\u5d60
(lp4166
V\u8c3f
asV\uf9e3
(lp4167
V\u6ce5
asV\u77e7
(lp4168
V\u8a20
asV\u5168
(lp4169
V\u34b0
asV\u4eed
(lp4170
V\u4ede
asV\u6f6c
(lp4171
V\u7058
asV\u6374
(lp4172
V\u7e3d
asV\u58f9
(lp4173
V\u640b
asV\uf978
(lp4174
V\u5169
asV\U00028d80
(lp4175
V\U00028e09
asV\u4e82
(lp4176
V\u4e71
aV\u4e71
asV\u6a05
(lp4177
V\u679e
asV\u9590
(lp4178
V\U00028e03
asV\u9394
(lp4179
V\u7194
aV\u9555
aV\u7194
asV\u6c96
(lp4180
V\u51b2
aV\u51b2
aV\u76c5
asV\u451b
(lp4181
V\u6abe
asV\u431f
(lp4182
V\U0002621e
asV\u609e
(lp4183
V\u8aa4
aV\u60ae
asV\u5923
(lp4184
V\u5922
asV\u5727
(lp4185
V\u58d3
asV\u74a6
(lp4186
V\u7477
asV\u9029
(lp4187
V\u5954
asV\uf91f
(lp4188
V\u862d
asV\u7f37
(lp4189
V\u5378
asV\u753b
(lp4190
V\u756b
asV\u363d
(lp4191
V\u39b3
asV\u8943
(lp4192
V\u8912
aV\u8912
asV\u8747
(lp4193
V\u8805
asV\u9b4f
(lp4194
V\u5dcd
asV\u5451
(lp4195
V\u541e
aV\u541e
asV\u75d0
(lp4196
V\u8698
asV\u665d
(lp4197
V\u663c
asV\u5ee2
(lp4198
V\u5e9f
aV\u5ec3
asV\u9be4
(lp4199
V\u9cb2
asV\u54e6
(lp4200
V\u8a90
asV\u8471
(lp4201
V\u8525
asV\u5f77
(lp4202
V\u4eff
asV\u7cf6
(lp4203
V\u689d
aV\u7c9c
asV\u967d
(lp4204
V\u9633
aV\u661c
asV\u6487
(lp4205
V\u6486
asV\u8706
(lp4206
V\u86ac
asV\u641c
(lp4207
V\u635c
asV\u5fa1
(lp4208
V\u99ad
asV\u53a9
(lp4209
V\u5ed0
asV\u9a38
(lp4210
V\u9a9f
asV\uf9b4
(lp4211
V\u9818
asV\u8fc1
(lp4212
V\u9077
asV\U0002820a
(lp4213
V\U000280ba
asV\u5ecb
(lp4214
V\u5ec0
asV\u7552
(lp4215
V\u755d
asV\u91d5
(lp4216
V\u948c
asV\u5864
(lp4217
V\u58ce
aV\u57d9
asV\u9766
(lp4218
V\u89a5
aV\u817c
asV\u8eeb
(lp4219
V\u8f78
asV\u916a
(lp4220
V\uf919
asV\u6670
(lp4221
V\u6673
aV\u6662
asV\u9cf7
(lp4222
V\U0002b6db
asV\u5bf9
(lp4223
V\u5c0d
asV\u96fb
(lp4224
V\u7535
asV\u55fd
(lp4225
V\u7636
asV\u6f01
(lp4226
V\u4c77
aV\u6e14
asV\u7d0d
(lp4227
V\u7eb3
asV\u380f
(lp4228
V\u37c6
asV\u9690
(lp4229
V\u96a0
asV\u5592
(lp4230
V\u661d
asV\u4c17
(lp4231
V\u9b2e
asV\u8b19
(lp4232
V\u8c26
asV\u9f21
(lp4233
V\u9f20
asV\u7da2
(lp4234
V\u7d2c
aV\u7ef8
asV\u9329
(lp4235
V\u9520
asV\u7c37
(lp4236
V\u6a90
asV\u3b39
(lp4237
V\u8e2d
asV\u763b
(lp4238
V\u763a
asV\u54bc
(lp4239
V\u5459
asV\u68c4
(lp4240
V\u5f03
asV\u984f
(lp4241
V\u989c
asV\u5751
(lp4242
V\u962c
aV\u962c
asV\U000249da
(lp4243
V\u7481
asV\u5de2
(lp4244
V\u5de3
asV\u7965
(lp4245
V\ufa1a
asV\u98e4
(lp4246
V\u98fc
asV\u92e8
(lp4247
V\u9507
asV\u8771
(lp4248
V\u459f
asV\u7ff6
(lp4249
V\u7ff1
asV\uf9fa
(lp4250
V\u72c0
asV\u73fe
(lp4251
V\u73b0
asV\u4f00
(lp4252
V\u5f78
asV\u6b83
(lp4253
V\u4103
asV\u8606
(lp4254
V\u82a6
aV\u82a6
aV\uf935
asV\u4308
(lp4255
V\U00026216
asV\u7f8b
(lp4256
V\u8288
asV\u798f
(lp4257
V\ufa1b
asV\u9a0e
(lp4258
V\u9a91
asV\u9412
(lp4259
V\u94f9
asV\u5114
(lp4260
V\u4fe6
asV\u651c
(lp4261
V\u643a
aV\u643a
asV\u9ba3
(lp4262
V\u4c9f
asV\uf924
(lp4263
V\u8964
asV\u95a7
(lp4264
V\u9b28
aV\u54c4
asV\u66b1
(lp4265
V\u6635
asV\u60b5
(lp4266
V\u6005
asV\u5e36
(lp4267
V\u5e26
aV\u5e2f
asV\U000237bb
(lp4268
V\U00023613
asV\u583a
(lp4269
V\u754c
asV\u74bd
(lp4270
V\u58d0
aV\u73ba
asV\u523e
(lp4271
V\u523a
asV\u604a
(lp4272
V\u52f0
aV\u5354
asV\u7a4e
(lp4273
V\u9834
aV\u9896
asV\u96d1
(lp4274
V\u96dc
asV\u7452
(lp4275
V\u739a
asV\U00029938
(lp4276
V\U00029a05
asV\u885a
(lp4277
V\u80e1
asV\u61df
(lp4278
V\u603c
asV\u5f60
(lp4279
V\u5f5f
asV\u8feb
(lp4280
V\u5ef9
asV\u6770
(lp4281
V\u5091
asV\u97fb
(lp4282
V\u97f5
aV\u97f5
asV\u6209
(lp4283
V\u925e
asV\u7c0d
(lp4284
V\u7bd3
asV\u5492
(lp4285
V\u546a
aV\u546a
asV\u7015
(lp4286
V\u6fd2
asV\u6e96
(lp4287
V\u51c6
aV\u51c6
aV\u51d6
asV\u629e
(lp4288
V\u64c7
asV\u9e21
(lp4289
V\u96de
asV\u5527
(lp4290
V\u559e
asV\u6f2b
(lp4291
V\u6fb7
asV\u84b2
(lp4292
V\u8386
asV\u98ba
(lp4293
V\u98cf
asV\u9f4b
(lp4294
V\u658b
aV\u658b
aV\u658e
asV\u5c4d
(lp4295
V\u5c38
aV\u5c38
asV\u5651
(lp4296
V\u568e
asV\U00025055
(lp4297
V\u6637
asV\u7e61
(lp4298
V\u7d89
aV\u7ee3
aV\u7e4d
asV\u93e8
(lp4299
V\u933e
asV\u8671
(lp4300
V\u8768
asV\u64f2
(lp4301
V\u64ff
aV\u63b7
asV\u8075
(lp4302
V\u8069
asV\u947d
(lp4303
V\u94bb
asV\u517f
(lp4304
V\u85dd
asV\u5000
(lp4305
V\u4f25
asV\u7483
(lp4306
V\u74c8
asV\u9302
(lp4307
V\U00028c4b
asV\u5c08
(lp4308
V\u8011
aV\u4e13
asV\u608b
(lp4309
V\u541d
asV\u7a1c
(lp4310
V\uf956
asV\u9e9f
(lp4311
V\u9e90
aV\uf9f3
asV\u922c
(lp4312
V\u9438
asV\u79b1
(lp4313
V\u7982
aV\u7977
asV\u9830
(lp4314
V\u988a
asV\u6bbd
(lp4315
V\u6dc6
asV\u8a3c
(lp4316
V\u8b49
aV\u8b49
asV\u91c1
(lp4317
V\u8845
aV\u8845
asV\U00023040
(lp4318
V\U00027959
asV\uf946
(lp4319
V\u7262
asV\u654e
(lp4320
V\u6559
aV\u6559
asV\u8fd5
(lp4321
V\u5fe4
asV\u9156
(lp4322
V\u9d06
asV\u78db
(lp4323
V\u5d83
asV\u975a
(lp4324
V\u9753
aV\u975c
asV\u9d5e
(lp4325
V\u9d5d
aV\u9d5d
asV\u64e3
(lp4326
V\u6417
aV\U00022b4f
aV\u6417
asV\u6ae7
(lp4327
V\u69e0
asV\u9cf3
(lp4328
V\u51e4
aV\u9cef
asV\u5ff5
(lp4329
V\uf9a3
asV\u8eff
(lp4330
V\u8f27
asV\u9684
(lp4331
V\u5824
asV\u7d09
(lp4332
V\u7eab
asV\u5217
(lp4333
V\uf99c
asV\u7d9e
(lp4334
V\u7f0d
asV\u69a6
(lp4335
V\u4e7e
asV\u87ba
(lp4336
V\u8803
aV\uf911
asV\u9a47
(lp4337
V\u9a3a
asV\u4951
(lp4338
V\u9fcf
asV\u68d0
(lp4339
V\u69a7
asV\U00020c53
(lp4340
V\U00020f2e
asV\u51d6
(lp4341
V\u6e96
asV\u7559
(lp4342
V\u7544
asV\u6765
(lp4343
V\u4f86
asV\u6d69
(lp4344
V\u6f94
asV\u566f
(lp4345
V\u55f3
asV\u75ee
(lp4346
V\u8139
asV\u7bf2
(lp4347
V\u5f57
asV\u61f6
(lp4348
V\u61d2
asV\u8b7d
(lp4349
V\u8a89
asV\u5100
(lp4350
V\u4eea
asV\u7583
(lp4351
V\u757d
asV\u7b87
(lp4352
V\u500b
asV\u9806
(lp4353
V\u987a
asV\u5d08
(lp4354
V\u5d07
asV\u618b
(lp4355
V\U00022833
asV\u678f
(lp4356
V\u6960
aV\u6960
asV\u840e
(lp4357
V\u837d
asV\u8a12
(lp4358
V\u8bb1
asV\u361a
(lp4359
V\u360e
asV\u6120
(lp4360
V\u614d
asV\u72ad
(lp4361
V\u72ac
asV\u932c
(lp4362
V\u7149
asV\u9f34
(lp4363
V\u9f39
asV\u64b9
(lp4364
V\u652a
asV\U000217b5
(lp4365
V\u36df
asV\u463a
(lp4366
V\u7dbb
asV\U00026abd
(lp4367
V\U00026a29
asV\u8b3c
(lp4368
V\u547c
asV\u4c3e
(lp4369
V\u9c83
asV\u90c1
(lp4370
V\u5590
asV\u5bc7
(lp4371
V\u5bbc
asV\u7e4a
(lp4372
V\u7e96
asV\uf9db
(lp4373
V\u7387
asV\u65e3
(lp4374
V\u65e2
asV\u8262
(lp4375
V\u6aa3
asV\u4764
(lp4376
V\u7360
asV\u6be7
(lp4377
V\u3c93
asV\uf970
(lp4378
V\u6bba
asV\u9df3
(lp4379
V\u9e47
asV\u5ef5
(lp4380
V\u5de1
aV\u5de1
asV\u83f7
(lp4381
V\u5e1a
asV\u6578
(lp4382
V\u6570
asV\u7001
(lp4383
V\u6f3e
aV\u6f3e
asV\uf9c1
(lp4384
V\u7642
asV\U00029784
(lp4385
V\U0002980e
asV\u5e8a
(lp4386
V\u7240
aV\u7240
asV\U0002448e
(lp4387
V\U00024280
asV\u8990
(lp4388
V\u89ba
asV\u6e15
(lp4389
V\u6df5
asV\u5317
(lp4390
V\uf963
asV\u9419
(lp4391
V\u956b
asV\u591b
(lp4392
V\u591a
asV\u769a
(lp4393
V\u7691
asV\u9a1d
(lp4394
V\U00029a03
asV\u8021
(lp4395
V\u92e4
asV\u68a6
(lp4396
V\u5922
asV\u6eaa
(lp4397
V\u6e13
asV\u7d33
(lp4398
V\u7ec5
asV\u5fb4
(lp4399
V\u5fb5
asV\u6337
(lp4400
V\u6412
asV\u86ba
(lp4401
V\u86a6
asV\u6f3f
(lp4402
V\U0002456f
aV\u6d46
asV\u5645
(lp4403
V\U00020be0
aV\u5655
asV\u5c49
(lp4404
V\u5c5c
asV\u4e55
(lp4405
V\u864e
asV\u6fd4
(lp4406
V\u6cb5
asV\u7459
(lp4407
V\u78af
asV\u95d8
(lp4408
V\u9b25
asV\u81e0
(lp4409
V\u8114
asV\u516b
(lp4410
V\u634c
asV\u926d
(lp4411
V\u94bd
asV\u576f
(lp4412
V\u574f
aV\u58de
asV\u9871
(lp4413
V\u9ad7
aV\u9885
asV\u5d73
(lp4414
V\u5d6f
asV\u9e75
(lp4415
V\u5364
asV\u5200
(lp4416
V\u5202
aV\u5202
asV\u9b06
(lp4417
V\u677e
asV\u648f
(lp4418
V\u6326
asV\U0002070e
(lp4419
V\u93fe
asV\u8912
(lp4420
V\u8943
aV\u8943
asV\u7618
(lp4421
V\u763a
asV\u599d
(lp4422
V\u7ca7
aV\u5986
asV\u6e28
(lp4423
V\u9688
asV\u9a30
(lp4424
V\u99e6
aV\u817e
asV\u7db5
(lp4425
V\u433d
asV\u93c1
(lp4426
V\u9396
aV\u9396
asV\u3444
(lp4427
V\u4fae
asV\u58c7
(lp4428
V\u575b
aV\u575b
asV\u7b46
(lp4429
V\u7b14
aV\u7b14
asV\u81cd
(lp4430
V\u8110
asV\u674e
(lp4431
V\uf9e1
asV\u955a
(lp4432
V\u930b
asV\u585c
(lp4433
V\u5873
asV\u7cdf
(lp4434
V\u91a9
asV\u8162
(lp4435
V\u9ac3
asV\u68e7
(lp4436
V\u6808
aV\u685f
asV\u8b66
(lp4437
V\u5106
asV\u706c
(lp4438
V\u706b
asV\u7a70
(lp4439
V\u7a63
asV\u5df5
(lp4440
V\u536e
asV\u80f7
(lp4441
V\u80f8
asV\u9280
(lp4442
V\u94f6
asV\u610d
(lp4443
V\u61ab
asV\u8a90
(lp4444
V\u54e6
asV\u7396
(lp4445
V\u4e5d
asV\u5a1b
(lp4446
V\u5a31
asV\u991d
(lp4447
V\u98fe
asV\u8525
(lp4448
V\u8471
aV\u8471
asV\u8f29
(lp4449
V\u8ef0
aV\u8f88
asV\u3b31
(lp4450
V\u6701
asV\u5ab0
(lp4451
V\u36c0
asV\u7e33
(lp4452
V\u4338
asV\u85ba
(lp4453
V\u8360
aV\u8415
asV\u5341
(lp4454
V\uf973
asV\u72c0
(lp4455
V\u72b6
asV\u55da
(lp4456
V\u545c
asV\uf95d
(lp4457
V\u8afe
asV\u98dc
(lp4458
V\u7ffb
asV\u5fde
(lp4459
V\u668b
asV\u8ee8
(lp4460
V\U0002b409
asV\u77ee
(lp4461
V\u8eb7
asV\uf9f2
(lp4462
V\u9c57
asV\u63f6
(lp4463
V\u6353
asV\u6ffe
(lp4464
V\u6ee4
aV\uf984
asV\u5300
(lp4465
V\u52fb
asV\u5504
(lp4466
V\u5457
asV\uf987
(lp4467
V\u9a6a
asV\u5f08
(lp4468
V\u5955
asV\u9197
(lp4469
V\u91b1
asV\u5699
(lp4470
V\u556e
aV\u9f67
asV\u7718
(lp4471
V\u613c
asV\u589d
(lp4472
V\u78fd
asV\uf91c
(lp4473
V\u5375
asV\u6524
(lp4474
V\u644a
asV\u562e
(lp4475
V\u5520
asV\u9b30
(lp4476
V\u9b31
asV\u7cb5
(lp4477
V\u7ca4
aV\u7ca4
asV\u9d34
(lp4478
V\u9e3b
asV\U000280de
(lp4479
V\U000280df
asV\u92c1
(lp4480
V\u94dd
asV\u8ad1
(lp4481
V\u8bfc
asV\u4fd3
(lp4482
V\u5f91
asV\u6852
(lp4483
V\u6851
asV\u8cd5
(lp4484
V\u8d47
asV\u71d7
(lp4485
V\u721b
asV\u7bdb
(lp4486
V\u7bac
asV\u945a
(lp4487
V\u947d
asV\U00024360
(lp4488
V\u71b1
asV\u69e7
(lp4489
V\u6920
asV\u8a66
(lp4490
V\u8bd5
asV\u50ed
(lp4491
V\u50e3
asV\u716c
(lp4492
V\u70ca
aV\u7080
asV\u366e
(lp4493
V\u5854
asV\U00025af1
(lp4494
V\u56e4
asV\u6778
(lp4495
V\u6bb3
asV\u7405
(lp4496
V\u746f
aV\u746f
asV\u5a86
(lp4497
V\u5ae9
asV\u7e09
(lp4498
V\u7f19
asV\U0002018c
(lp4499
V\u5eb8
asV\u468e
(lp4500
V\U0002517e
asV\u6a11
(lp4501
V\u6881
asV\u8b90
(lp4502
V\u4ec7
asV\u7296
(lp4503
V\u8366
asV\u5d1f
(lp4504
V\u5d94
asV\u8221
(lp4505
V\u8239
aV\u8239
asV\u732b
(lp4506
V\u8c93
asV\u6caa
(lp4507
V\u51b1
asV\u51ac
(lp4508
V\u9f15
asV\u752f
(lp4509
V\u5bd7
asV\u96ae
(lp4510
V\u8e8b
asV\U000298b2
(lp4511
V\u99db
asV\u5db4
(lp4512
V\u5c99
asV\u6137
(lp4513
V\u607a
asV\u5241
(lp4514
V\u5234
aV\u5234
asV\u9947
(lp4515
V\u98eb
asV\u61cc
(lp4516
V\u603f
asV\u52d6
(lp4517
V\u52d7
asV\U000283e0
(lp4518
V\U00028407
asV\u85e4
(lp4519
V\u7c50
asV\u8fe8
(lp4520
V\u902e
aV\u902e
asV\u906d
(lp4521
V\u8e67
asV\u556f
(lp4522
V\u5613
asV\u64fa
(lp4523
V\u6446
asV\u887d
(lp4524
V\u88b5
asV\u6efe
(lp4525
V\u6eda
asV\u5204
(lp4526
V\u5203
aV\u5203
asV\u7e87
(lp4527
V\u98a3
aV\u98a3
asV\u9d06
(lp4528
V\u9156
aV\u9e29
asV\U00022d91
(lp4529
V\U00022e23
asV\u8f12
(lp4530
V\u8f19
aV\u8f84
asV\u7018
(lp4531
V\u6cf8
asV\u77ad
(lp4532
V\u4e86
asV\u962c
(lp4533
V\u5751
aV\u5751
asV\u7db1
(lp4534
V\u7eb2
asV\U00021a34
(lp4535
V\u5be7
asV\u7d46
(lp4536
V\u7eca
asV\u614e
(lp4537
V\u613c
asV\u76d7
(lp4538
V\u76dc
asV\u935a
(lp4539
V\u9496
asV\u995e
(lp4540
V\u56b5
aV\u998b
asV\u766c
(lp4541
V\u7663
asV\u92ef
(lp4542
V\u9506
asV\u5bf5
(lp4543
V\U000205a5
aV\u5ba0
asV\u8cfb
(lp4544
V\u8d59
asV\u6e7c
(lp4545
V\u6d85
asV\u7501
(lp4546
V\u74f6
asV\u5782
(lp4547
V\u57c0
asV\uf909
(lp4548
V\u5951
asV\u5617
(lp4549
V\u751e
aV\u5c1d
asV\u5a1f
(lp4550
V\u59e2
asV\uf99e
(lp4551
V\u54bd
asV\U00020325
(lp4552
V\U000201bf
asV\u56ac
(lp4553
V\u9870
asV\u6637
(lp4554
V\U00025055
asV\u4ebc
(lp4555
V\u96c6
asV\u6a3f
(lp4556
V\u692b
aV\u692b
asV\u4d51
(lp4557
V\u4d52
asV\u8853
(lp4558
V\u672f
asV\u7159
(lp4559
V\u70df
asV\u82e4
(lp4560
V\u77a5
asV\u976d
(lp4561
V\u97cc
aV\u97cc
asV\u5873
(lp4562
V\u585c
asV\u63fa
(lp4563
V\u6416
asV\u5304
(lp4564
V\u5303
asV\u7f87
(lp4565
V\u7f88
asV\u9c06
(lp4566
V\u4ca0
asV\u658b
(lp4567
V\u9f4b
asV\u638f
(lp4568
V\u642f
aV\u642f
asV\u5099
(lp4569
V\u4ffb
aV\u5907
asV\u9b9f
(lp4570
V\U00029f7e
asV\u81a3
(lp4571
V\u815f
asV\u8fa7
(lp4572
V\u8fa8
asV\u9d30
(lp4573
V\u9e39
asV\u39b3
(lp4574
V\u363d
asV\u5e32
(lp4575
V\u5e21
asV\u7ab5
(lp4576
V\u7a8e
asV\u6ebd
(lp4577
V\u7e1f
asV\u8f3c
(lp4578
V\u8f40
asV\u51c3
(lp4579
V\u5857
asV\u7642
(lp4580
V\u7597
asV\u92c5
(lp4581
V\u950c
asV\u86cd
(lp4582
V\u87a2
asV\u8cd1
(lp4583
V\u8d48
asV\u8ad5
(lp4584
V\u552c
asV\u925a
(lp4585
V\u94c6
asV\u5f5c
(lp4586
V\u5f5d
asV\u985e
(lp4587
V\U00029517
aV\u7c7b
aV\uf9d0
asV\u61e3
(lp4588
V\u61d1
asV\u6fe7
(lp4589
V\u3cd4
asV\u4968
(lp4590
V\u9462
asV\u95eb
(lp4591
V\u95bb
asV\u56ed
(lp4592
V\u5213
asV\u7d70
(lp4593
V\u7ed6
asV\u5af5
(lp4594
V\u5a2c
aV\u59a9
asV\u7b74
(lp4595
V\u41f2
asV\u4efd
(lp4596
V\u5f6c
asV\u9580
(lp4597
V\u95e8
aV\u95e8
asV\u9384
(lp4598
V\u953f
asV\u9988
(lp4599
V\u993d
asV\u9019
(lp4600
V\u8fd9
aV\u8fd9
asV\u9e1d
(lp4601
V\u9e42
asV\u66a2
(lp4602
V\u7545
asV\u8829
(lp4603
V\u870d
asV\uf933
(lp4604
V\u76e7
asV\u9eb2
(lp4605
V\U0002a389
asV\u5bb4
(lp4606
V\u8b8c
asV\u79c8
(lp4607
V\u7c7c
aV\u7c7c
asV\u854b
(lp4608
V\u854a
aV\u854a
asV\u7059
(lp4609
V\U00023ebc
asV\u91d8
(lp4610
V\u9489
asV\u58de
(lp4611
V\u574f
aV\u58ca
asV\u6461
(lp4612
V\u6e89
asV\u536f
(lp4613
V\u623c
asV\u5973
(lp4614
V\uf981
asV\U00023bf4
(lp4615
V\U00023b64
asV\u8079
(lp4616
V\u804d
asV\u4b7f
(lp4617
V\U000299ed
asV\u668b
(lp4618
V\u6543
aV\u5fde
asV\u990a
(lp4619
V\u517b
asV\u4e10
(lp4620
V\u5303
asV\u8d12
(lp4621
V\u8ce2
asV\u5399
(lp4622
V\u538d
asV\u5d9d
(lp4623
V\u78f4
asV\u6620
(lp4624
V\u668e
aV\u668e
asV\u8ca7
(lp4625
V\u8d2b
asV\uf9b5
(lp4626
V\u4f8b
asV\u9834
(lp4627
V\u7a4e
aV\u9895
asV\u4736
(lp4628
V\u8c47
asV\u413a
(lp4629
V\u7a0a
asV\u97c1
(lp4630
V\u7e6e
aV\u7f30
asV\u52c3
(lp4631
V\u8274
asV\u91c5
(lp4632
V\u917d
asV\u9bc9
(lp4633
V\u9ca4
asV\uf94a
(lp4634
V\u58d8
asV\u85cd
(lp4635
V\u84dd
asV\u9756
(lp4636
V\ufa1c
asV\u5c5c
(lp4637
V\U00021c95
aV\u5c49
asV\u8562
(lp4638
V\u8489
asV\u896a
(lp4639
V\u889c
aV\u97c8
asV\u7e70
(lp4640
V\u7e45
aV\u7f32
asV\u8efb
(lp4641
V\u8f72
asV\u7701
(lp4642
V\uf96d
asV\u5582
(lp4643
V\u9927
asV\u9084
(lp4644
V\u8fd8
aV\u8fd8
asV\u598a
(lp4645
V\u59d9
aV\u59d9
asV\u6f11
(lp4646
V\u6e89
asV\u9319
(lp4647
V\u9531
asV\u9d1d
(lp4648
V\u9e32
asV\u8721
(lp4649
V\u8721
asV\u8125
(lp4650
V\U00023370
asV\u6fa6
(lp4651
V\u6eea
asV\u69aa
(lp4652
V\u6769
asV\u54ac
(lp4653
V\u9f69
aV\u9f69
asV\u93ae
(lp4654
V\u9547
asV\u9db2
(lp4655
V\u9e5f
asV\u3935
(lp4656
V\u6148
asV\U0002541e
(lp4657
V\u786d
asV\u9c47
(lp4658
V\U00029f8c
asV\u7ac8
(lp4659
V\u7076
asV\u4f51
(lp4660
V\u7950
asV\U000292d8
(lp4661
V\u978b
asV\u7d5d
(lp4662
V\u7ed4
aV\u8932
asV\u6761
(lp4663
V\u689d
asV\u6b69
(lp4664
V\u6b65
asV\u7df2
(lp4665
V\u7707
aV\u7f08
asV\u61fa
(lp4666
V\u5fcf
aV\u61f4
asV\u5700
(lp4667
V\u570b
asV\u5104
(lp4668
V\u4ebf
asV\u7d87
(lp4669
V\U0002620b
asV\u5b08
(lp4670
V\u5a06
asV\u980a
(lp4671
V\u987c
asV\ufa2c
(lp4672
V\u9928
asV\u820e
(lp4673
V\u820d
asV\u7d1c
(lp4674
V\u7ead
asV\u5c32
(lp4675
V\u5c37
asV\u96c1
(lp4676
V\u9d08
aV\u9ceb
asV\u53c3
(lp4677
V\u53c5
aV\u53c2
aV\uf96b
asV\u90c5
(lp4678
V\u80dd
asV\u7e46
(lp4679
V\u7f2a
asV\u624e
(lp4680
V\u7d2e
asV\u8ed1
(lp4681
V\u8f6a
asV\u5358
(lp4682
V\u55ae
asV\u5d5c
(lp4683
V\u5d0e
asV\uf9df
(lp4684
V\u5c65
asV\u8462
(lp4685
V\u84cb
asV\u756c
(lp4686
V\u756d
asV\u5ef1
(lp4687
V\u96dd
asV\u7f70
(lp4688
V\u7f5a
aV\u7f78
asV\U00029bf3
(lp4689
V\U00029bd2
asV\uf974
(lp4690
V\u82e5
asV\u85f7
(lp4691
V\u85af
asV\u8ffb
(lp4692
V\u79fb
asV\u9780
(lp4693
V\u9f17
asV\u5482
(lp4694
V\U00020bd7
asV\u7005
(lp4695
V\u6ee2
asV\ufa09
(lp4696
V\u964d
asV\u588a
(lp4697
V\u57ab
asV\u640d
(lp4698
V\u635f
asV\u858c
(lp4699
V\u8297
asV\u8994
(lp4700
V\u8993
asV\U00021219
(lp4701
V\u56ee
asV\u8a29
(lp4702
V\u8a7e
aV\u8bbb
asV\u55ac
(lp4703
V\u4e54
aV\u4e54
asV\u6537
(lp4704
V\u8003
aV\u8003
asV\u8abe
(lp4705
V\u8a1a
asV\u5641
(lp4706
V\u6076
asV\u9343
(lp4707
V\u952a
asV\u71c4
(lp4708
V\u7130
asV\u874b
(lp4709
V\u881f
asV\u93d8
(lp4710
V\u9535
asV\u50da
(lp4711
V\uf9bb
asV\u6661
(lp4712
V\U000231c0
asV\u6065
(lp4713
V\u803b
aV\u803b
asV\u576b
(lp4714
V\u5e97
asV\u946d
(lp4715
V\u9567
asV\u5b73
(lp4716
V\u5b76
asV\u7cf2
(lp4717
V\u7c9d
asV\u66f6
(lp4718
V\u3ada
asV\u60fa
(lp4719
V\U0002272b
asV\u6afe
(lp4720
V\u67da
asV\u7c83
(lp4721
V\u79d5
asV\u9b02
(lp4722
V\u9b22
asV\u7287
(lp4723
V\u5954
aV\u5954
asV\u9106
(lp4724
V\u90d3
asV\u5408
(lp4725
V\u95a4
asV\u970a
(lp4726
V\u9748
asV\u6493
(lp4727
V\u6320
asV\u7c18
(lp4728
V\u7c2b
asV\U00027405
(lp4729
V\u86c6
asV\U000202a7
(lp4730
V\u4f75
asV\u6428
(lp4731
V\u642d
asV\u71b1
(lp4732
V\U00024360
aV\u70ed
asV\u9030
(lp4733
V\u6e38
asV\u9634
(lp4734
V\u9670
asV\u63bd
(lp4735
V\u78b0
asV\u99c1
(lp4736
V\u99ee
aV\u9a73
aV\u99ee
asV\u7146
(lp4737
V\u935c
asV\u4ecf
(lp4738
V\u4f5b
asV\u70db
(lp4739
V\u71ed
asV\u8166
(lp4740
V\u5318
aV\u8111
asV\u98eb
(lp4741
V\u9947
aV\u996b
asV\u51f1
(lp4742
V\u51ef
asV\u7070
(lp4743
V\U0002f835
asV\u8af7
(lp4744
V\u8bbd
asV\uf901
(lp4745
V\u66f4
asV\u5b82
(lp4746
V\u5197
aV\u5197
asV\u9e84
(lp4747
V\u7c97
asV\u5186
(lp4748
V\u5713
asV\u6b0d
(lp4749
V\U00023424
asV\u8a8c
(lp4750
V\u5fd7
asV\u8090
(lp4751
V\u80f3
asV\uf996
(lp4752
V\u7df4
asV\u7f9a
(lp4753
V\uf9af
asV\u8f25
(lp4754
V\u8f8a
asV\u7e2f
(lp4755
V\u4325
asV\u93b2
(lp4756
V\u954b
asV\u56b4
(lp4757
V\u4e25
aV\u53b3
asV\u6a37
(lp4758
V\u53e2
asV\u8fba
(lp4759
V\u908a
asV\u663f
(lp4760
V\u66e0
asV\u74c8
(lp4761
V\u7483
asV\u6acc
(lp4762
V\u8030
asV\u8e4f
(lp4763
V\u8e44
asV\u6961
(lp4764
V\u6986
asV\u88e0
(lp4765
V\u88d9
aV\u88d9
asV\u8ee4
(lp4766
V\u8f77
asV\u6569
(lp4767
V\u6585
asV\u586b
(lp4768
V\u5861
asV\u69f6
(lp4769
V\u6922
asV\u407b
(lp4770
V\u4025
asV\u6ffa
(lp4771
V\u6e85
asV\u837d
(lp4772
V\u840e
asV\u5900
(lp4773
V\u58fd
asV\u7d83
(lp4774
V\u7ee1
asV\u9a02
(lp4775
V\u9a8d
asV\u5f04
(lp4776
V\uf943
asV\u7387
(lp4777
V\uf961
asV\uf980
(lp4778
V\u5442
asV\U00022091
(lp4779
V\u62ed
asV\u7d18
(lp4780
V\u7eae
asV\u529d
(lp4781
V\u52f8
asV\u979f
(lp4782
V\u97b9
asV\u83a7
(lp4783
V\u82cb
asV\U0002a026
(lp4784
V\U0002a245
asV\u9b2c
(lp4785
V\u9b25
asV\u9130
(lp4786
V\u96a3
aV\u90bb
aV\u96a3
asV\u4e3a
(lp4787
V\u70ba
asV\u62bd
(lp4788
V\U00022b46
asV\uf92a
(lp4789
V\u6d6a
asV\u7a42
(lp4790
V\u7a57
asV\u53c7
(lp4791
V\u9746
asV\u8acd
(lp4792
V\u8be4
asV\u6c4e
(lp4793
V\u6cdb
aV\u6cdb
asV\u80d1
(lp4794
V\u80a2
asV\u9856
(lp4795
V\u56df
asV\uf965
(lp4796
V\u4fbf
asV\u945e
(lp4797
V\u9574
asV\u8a62
(lp4798
V\u8be2
asV\u8066
(lp4799
V\u8070
asV\u50f1
(lp4800
V\u96c7
asV\u637c
(lp4801
V\u633c
asV\u7409
(lp4802
V\u7460
aV\uf9cc
asV\u9588
(lp4803
V\u95ec
asV\u8b8c
(lp4804
V\u5bb4
aV\u4729
aV\u71d5
asV\U00029d98
(lp4805
V\u4c9e
asV\u511b
(lp4806
V\u3487
asV\u6aa2
(lp4807
V\u68c0
aV\u691c
asV\u60a6
(lp4808
V\u6085
asV\u792b
(lp4809
V\u783e
asV\u51b0
(lp4810
V\u6c37
asV\u92b2
(lp4811
V\u91ec
asV\u613b
(lp4812
V\u905c
asV\u673f
(lp4813
V\u83bf
asV\uf9c0
(lp4814
V\u71ce
asV\u9d43
(lp4815
V\u9e3c
asV\u7fc4
(lp4816
V\u7fc5
aV\u7fc5
asV\u9347
(lp4817
V\u9534
asV\u5449
(lp4818
V\u5433
aV\u5433
asV\U00028f4f
(lp4819
V\U00028e18
asV\u61d0
(lp4820
V\u61f7
asV\u8553
(lp4821
V\u82b8
asV\u7c59
(lp4822
V\u7b93
asV\u5eda
(lp4823
V\u53a8
aV\u53a8
asV\u93dc
(lp4824
V\u9557
asV\u9675
(lp4825
V\uf959
asV\u68f6
(lp4826
V\u68be
asV\u6efa
(lp4827
V\u60a0
asV\u827d
(lp4828
V\u97ed
asV\u64fe
(lp4829
V\u6270
asV\u9902
(lp4830
V\u8214
asV\u9306
(lp4831
V\u9516
asV\u5608
(lp4832
V\u470a
asV\U00026693
(lp4833
V\u80d3
asV\u929b
(lp4834
V\u94e6
asV\u519d
(lp4835
V\u5b9c
asV\u6c24
(lp4836
V\u7d6a
asV\u80a7
(lp4837
V\u80da
asV\uf9ad
(lp4838
V\u73b2
asV\u982c
(lp4839
V\u9830
asV\u9230
(lp4840
V\u94c8
asV\u5132
(lp4841
V\u50a8
asV\u6fb9
(lp4842
V\u6de1
aV\u6de1
asV\u803c
(lp4843
V\u8043
asV\u9bc1
(lp4844
V\u9ca0
asV\u5ec3
(lp4845
V\u5ee2
asV\uf942
(lp4846
V\u58df
asV\u97c9
(lp4847
V\u97af
asV\u754a
(lp4848
V\u8015
asV\uf98f
(lp4849
V\u6190
asV\u5e58
(lp4850
V\u5e3b
asV\u9d5a
(lp4851
V\U0002a24d
asV\u505c
(lp4852
V\u4ec3
asV\u74df
(lp4853
V\u530f
asV\u8962
(lp4854
V\u8892
asV\u60e7
(lp4855
V\u61fc
asV\u856a
(lp4856
V\u829c
asV\u786c
(lp4857
V\u5cfa
asV\u9cef
(lp4858
V\u9cf3
asV\U00021114
(lp4859
V\U00020d22
asV\u7d05
(lp4860
V\u7ea2
asV\u5386
(lp4861
V\u53b2
aV\u6b77
asV\u9688
(lp4862
V\u6e28
asV\u4f8e
(lp4863
V\u6549
asV\u8494
(lp4864
V\u83b3
asV\u7b96
(lp4865
V\u7c43
asV\u7d9a
(lp4866
V\u7e8c
asV\u541f
(lp4867
V\u552b
asV\u779e
(lp4868
V\u7792
asV\u8b21
(lp4869
V\u8b20
asV\u4e23
(lp4870
V\u9149
asV\u69a2
(lp4871
V\u67b6
asV\ufa2b
(lp4872
V\u98fc
asV\u623b
(lp4873
V\u623e
asV\u87be
(lp4874
V\u8693
asV\u8a4b
(lp4875
V\u546a
asV\U00021ba3
(lp4876
V\U00021b6c
asV\u64d4
(lp4877
V\u62c5
aV\u62c5
asV\u9ed8
(lp4878
V\u9ed9
asV\u6b61
(lp4879
V\u6b22
aV\u9a69
asV\u8ae0
(lp4880
V\u55a7
aV\u55a7
asV\u49e2
(lp4881
V\U00028e1f
asV\u8ce4
(lp4882
V\u8d31
asV\u6dfa
(lp4883
V\u6d45
asV\u67fe
(lp4884
V\u67e9
asV\u5b00
(lp4885
V\u5aaf
asV\u7f83
(lp4886
V\u51aa
aV\u51aa
asV\u9802
(lp4887
V\U00029811
aV\u9876
asV\u7187
(lp4888
V\u71fa
asV\u9206
(lp4889
V\u925b
asV\u5708
(lp4890
V\u570f
asV\u5e99
(lp4891
V\u5edf
asV\u939b
(lp4892
V\u9548
asV\u6b20
(lp4893
V\u7f3a
asV\u8fa3
(lp4894
V\u8fa2
aV\u8fa2
asV\u6d24
(lp4895
V\u6cc9
asV\u78ad
(lp4896
V\u7800
asV\u5032
(lp4897
V\u3448
asV\u74b5
(lp4898
V\u7399
asV\u8f38
(lp4899
V\u8f93
asV\u60bd
(lp4900
V\u6dd2
asV\u7246
(lp4901
V\u5899
aV\u58bb
asV\u82d1
(lp4902
V\u83c0
asV\u6052
(lp4903
V\u6046
asV\uf9d7
(lp4904
V\u8f2a
asV\u965e
(lp4905
V\u5347
asV\u8266
(lp4906
V\u8230
asV\u9beb
(lp4907
V\u9cb0
asV\uf96c
(lp4908
V\u585e
asV\u9def
(lp4909
V\u9e69
asV\u52f1
(lp4910
V\u52a2
asV\u7370
(lp4911
V\u72de
asV\u6f78
(lp4912
V\U00023f7d
asV\u83fb
(lp4913
V\u9ebb
asV\u617c
(lp4914
V\u617d
asV\ufa01
(lp4915
V\u5ea6
asV\u9d84
(lp4916
V\u4d16
asV\u5286
(lp4917
V\u942e
asV\u7609
(lp4918
V\u7652
asV\u898c
(lp4919
V\u89c0
asV\u4e8e
(lp4920
V\u6275
asV\u8594
(lp4921
V\u8537
asV\u7a96
(lp4922
V\u7a8c
asV\u59ac
(lp4923
V\u5992
aV\u5992
asV\U00027d2f
(lp4924
V\u5b6d
asV\u53b0
(lp4925
V\u5ee0
aV\u5ee0
asV\u3435
(lp4926
V\u5112
asV\u8ab6
(lp4927
V\u8c07
asV\u8cba
(lp4928
V\u8d36
asV\u5a41
(lp4929
V\u5a04
asV\u7bc0
(lp4930
V\u8282
aV\u7f47
asV\u5c45
(lp4931
V\u3790
asV\u7dc4
(lp4932
V\u7ef2
asV\u9147
(lp4933
V\u9142
asV\u77c8
(lp4934
V\u77cf
asV\U00024455
(lp4935
V\u718f
aV\u720b
asV\u7e59
(lp4936
V\u7ffb
asV\u705d
(lp4937
V\u704f
asV\u91dc
(lp4938
V\u91e1
asV\u56de
(lp4939
V\u56ec
asV\u6669
(lp4940
V\u665a
asV\u5b6b
(lp4941
V\u5b59
asV\u5d6f
(lp4942
V\u5d73
asV\u9271
(lp4943
V\u7926
asV\u9475
(lp4944
V\u7f50
asV\u4977
(lp4945
V\u350d
asV\u8e79
(lp4946
V\u8e4b
asV\u807d
(lp4947
V\u542c
aV\u542c
asV\u66fe
(lp4948
V\u66fd
asV\u5c00
(lp4949
V\u53f5
asV\u9f02
(lp4950
V\u9f0c
asV\ufa00
(lp4951
V\u5207
asV\u5008
(lp4952
V\u4feb
asV\u4e0c
(lp4953
V\u5176
asV\u890e
(lp4954
V\u890f
asV\u9e97
(lp4955
V\u4e3d
asV\u5999
(lp4956
V\u7385
aV\u7385
asV\u3aaf
(lp4957
V\u8209
asV\u75b1
(lp4958
V\u76b0
asV\u9234
(lp4959
V\u94c3
aV\uf9b1
asV\u9dc1
(lp4960
V\u9e62
asV\u7546
(lp4961
V\u755d
aV\u755d
asV\u9b5a
(lp4962
V\u9c7c
asV\u8f62
(lp4963
V\u8f79
aV\uf98d
asV\u9ceb
(lp4964
V\u96c1
asV\u5fed
(lp4965
V\u662a
asV\u9aef
(lp4966
V\u9ae5
asV\u396e
(lp4967
V\u3918
asV\u53f5
(lp4968
V\u5c00
asV\u7274
(lp4969
V\u89dd
aV\u89dd
asV\U0002667c
(lp4970
V\u9ab4
asV\u82ff
(lp4971
V\u83cb
asV\u5586
(lp4972
V\u54f2
asV\u8294
(lp4973
V\u5349
asV\u9919
(lp4974
V\u98fe
asV\u7b9a
(lp4975
V\u5273
asV\U0002521f
(lp4976
V\u778d
asV\u7c2b
(lp4977
V\u7bab
asV\u5eac
(lp4978
V\u5396
asV\u99ae
(lp4979
V\u51af
asV\u3531
(lp4980
V\u659e
asV\u97b2
(lp4981
V\u97dd
asV\u52b4
(lp4982
V\u52de
asV\u81be
(lp4983
V\u9c60
aV\u810d
asV\u9843
(lp4984
V\U00029596
asV\u7ac4
(lp4985
V\u7a9c
asV\u5149
(lp4986
V\u706e
asV\u8c4b
(lp4987
V\u767b
asV\u6ecc
(lp4988
V\u6da4
asV\u62d4
(lp4989
V\u629c
asV\u5dd6
(lp4990
V\u5ca9
aV\u5dcc
asV\uf959
(lp4991
V\u9675
asV\u96dc
(lp4992
V\u894d
aV\u6742
aV\u96d1
asV\u8ce0
(lp4993
V\u8d54
asV\u8ae4
(lp4994
V\u8b8d
aV\u8c14
asV\uf9ee
(lp4995
V\u71d0
asV\u9375
(lp4996
V\u952e
asV\u6df6
(lp4997
V\u6d9e
asV\u61fe
(lp4998
V\u6151
asV\uf983
(lp4999
V\u65c5
asV\u9e02
(lp5000
V\u3d89
asV\u3a85
(lp5001
V\u66f4
asV\u5108
(lp5002
V\u4fa9
asV\u880e
(lp5003
V\u87d2
asV\u5899
(lp5004
V\u7246
asV\uf918
(lp5005
V\u843d
asV\u6128
(lp5006
V\u60ab
aV\u6164
asV\u68b9
(lp5007
V\u6ab3
aV\u6ab3
asV\u8938
(lp5008
V\u891b
asV\U0002073c
(lp5009
V\u6390
asV\u9cc1
(lp5010
V\u9c1b
asV\u57c7
(lp5011
V\u752c
asV\u90c9
(lp5012
V\u90a2
asV\u8ecd
(lp5013
V\u519b
asV\u6652
(lp5014
V\u66ec
asV\u82d5
(lp5015
V\u4492
asV\u9c56
(lp5016
V\u9cdc
asV\u5958
(lp5017
V\u5f09
asV\u9a5a
(lp5018
V\u60ca
asV\U000282bb
(lp5019
V\U00028406
asV\u905e
(lp5020
V\u9013
aV\u9012
aV\u9013
asV\u8e62
(lp5021
V\u8c74
asV\u8466
(lp5022
V\u82c7
asV\u9deb
(lp5023
V\u9e54
asV\u826a
(lp5024
V\u6ad3
asV\u7570
(lp5025
V\u5f02
aV\uf962
asV\u91f3
(lp5026
V\U00028c3f
asV\u52f5
(lp5027
V\u52b1
aV\u52a2
asV\u7a05
(lp5028
V\u7a0e
asV\u9b84
(lp5029
V\U0002b692
asV\u7009
(lp5030
V\u6cfb
asV\u528a
(lp5031
V\u523d
asV\u961d
(lp5032
V\u961c
aV\u9091
asV\u8a25
(lp5033
V\u5436
aV\u8bb7
asV\u64a6
(lp5034
V\u626f
aV\u626f
asV\u5fac
(lp5035
V\u5f77
asV\u98ae
(lp5036
V\u98d1
asV\u3431
(lp5037
V\u9b12
asV\u55b0
(lp5038
V\u9910
asV\u96b2
(lp5039
V\u9a2d
asV\u53b4
(lp5040
V\u53a3
asV\u8cb6
(lp5041
V\u8d2c
asV\u9943
(lp5042
V\u998d
asV\u7bc4
(lp5043
V\u8303
asV\u5049
(lp5044
V\u4f1f
asV\u71c8
(lp5045
V\u706f
aV\u706f
asV\u8b4f
(lp5046
V\u8ba5
asV\u99d8
(lp5047
V\u9a80
asV\u97dc
(lp5048
V\u5f22
aV\u97ec
asV\u50de
(lp5049
V\u4f2a
aV\u507d
asV\u6c61
(lp5050
V\u6c59
aV\u6c59
asV\u6069
(lp5051
V\u6441
asV\u81e8
(lp5052
V\u4e34
aV\uf9f6
asV\u9471
(lp5053
V\u9575
asV\u6afa
(lp5054
V\u6b1e
asV\u7a83
(lp5055
V\u7aca
asV\u7487
(lp5056
V\u74bf
asV\u5208
(lp5057
V\u82c5
asV\u8b0e
(lp5058
V\u8c1c
asV\u7a18
(lp5059
V\u671e
asV\u969b
(lp5060
V\u9645
asV\u4fa1
(lp5061
V\u50f9
asV\u8aa3
(lp5062
V\u8bec
asV\u7dad
(lp5063
V\u7ef4
asV\U00022cb7
(lp5064
V\u641c
asV\U0002775e
(lp5065
V\u461b
asV\u843c
(lp5066
V\u855a
asV\u9fc1
(lp5067
V\u4724
asV\u7d42
(lp5068
V\u7ec8
asV\u99c5
(lp5069
V\u9a5b
asV\u93c9
(lp5070
V\U00028c52
asV\u6b4e
(lp5071
V\u5606
asV\u81d5
(lp5072
V\u8198
asV\u64e7
(lp5073
V\u8209
aV\u8209
asV\u8766
(lp5074
V\u9c15
aV\u867e
asV\u816a
(lp5075
V\U0002336f
asV\u7c6c
(lp5076
V\u7bf1
asV\u98ef
(lp5077
V\u996d
asV\u7670
(lp5078
V\u75c8
asV\u92f3
(lp5079
V\u9444
asV\u7074
(lp5080
V\u70d8
asV\u86fb
(lp5081
V\u8715
asV\uf905
(lp5082
V\u4e32
asV\u518a
(lp5083
V\u518c
asV\u8c8c
(lp5084
V\u7683
aV\u7683
asV\u5c17
(lp5085
V\u53d4
asV\u7f96
(lp5086
V\U00026369
asV\uf99a
(lp5087
V\u9023
asV\u501f
(lp5088
V\u85c9
asV\u6da2
(lp5089
V\u6eb3
asV\u7e2b
(lp5090
V\u7f1d
asV\u9bae
(lp5091
V\u9c7b
aV\u9c9c
aV\u5c1f
asV\u95b2
(lp5092
V\u95b1
asV\u50b4
(lp5093
V\u4f1b
asV\u6c37
(lp5094
V\u51b0
asV\u8fb6
(lp5095
V\u8fb5
asV\u663b
(lp5096
V\u6602
asV\u89ba
(lp5097
V\u8990
aV\u89c9
aV\u899a
asV\u9a43
(lp5098
V\u9aa0
asV\U00025945
(lp5099
V\u7ac9
asV\u5349
(lp5100
V\u8294
asV\u9ad8
(lp5101
V\u9ad9
aV\u9ad9
asV\u755d
(lp5102
V\u7546
aV\u4ea9
aV\u756e
asV\U0002305f
(lp5103
V\U0002305a
asV\u6965
(lp5104
V\u6966
asV\U00026369
(lp5105
V\u7f96
asV\u5e6b
(lp5106
V\u5e2e
asV\u9771
(lp5107
V\u97cc
asV\u5273
(lp5108
V\u5284
aV\u7b9a
asV\u75f2
(lp5109
V\u75f3
asV\u4c77
(lp5110
V\u6f01
aV\u4ca3
asV\u6ff6
(lp5111
V\u95ca
aV\u95ca
asV\u5f00
(lp5112
V\u5e75
asV\u9c02
(lp5113
V\u9c97
asV\u7587
(lp5114
V\u7574
asV\u8a0e
(lp5115
V\u8ba8
asV\uf982
(lp5116
V\u5eec
asV\u9d97
(lp5117
V\U0002b6f8
asV\u751c
(lp5118
V\u751b
asV\u4ea1
(lp5119
V\u4ebe
asV\u9d2c
(lp5120
V\u9daf
asV\u9730
(lp5121
V\u4a18
asV\u5432
(lp5122
V\u54c2
asV\u9134
(lp5123
V\u90ba
asV\u5bc3
(lp5124
V\u51a4
aV\u51a4
asV\u55c7
(lp5125
V\u556c
asV\u7646
(lp5126
V\u75e8
asV\u92c9
(lp5127
V\U00028c48
asV\u6452
(lp5128
V\u62fc
aV\u5c4f
asV\u7dd7
(lp5129
V\u7f03
asV\u985a
(lp5130
V\u985b
asV\u71df
(lp5131
V\u8425
asV\u925e
(lp5132
V\u6209
aV\u94ba
asV\u4f60
(lp5133
V\u4f31
aV\u59b3
asV\u65e7
(lp5134
V\u820a
asV\u5ced
(lp5135
V\u9657
asV\u56f1
(lp5136
V\u56ea
asV\u6b78
(lp5137
V\u5f52
aV\u5f52
aV\u5e30
asV\u87fb
(lp5138
V\u8798
aV\u8681
asV\u7e01
(lp5139
V\u7de3
aV\u7de3
asV\u7805
(lp5140
V\u6fff
asV\u4492
(lp5141
V\u82d5
asV\u5d17
(lp5142
V\u5ca1
aV\u5c97
aV\u5ca1
asV\u7e96
(lp5143
V\u7ea4
asV\u9a19
(lp5144
V\u9a17
aV\u9a97
asV\u511f
(lp5145
V\u507f
asV\u6ca2
(lp5146
V\u6fa4
asV\u66a6
(lp5147
V\u66c6
asV\u8229
(lp5148
V\u8239
asV\u60aa
(lp5149
V\u60e1
asV\U00028373
(lp5150
V\u8efa
asV\uf92f
(lp5151
V\u52de
asV\u8eb6
(lp5152
V\u88f8
asV\u613f
(lp5153
V\u9858
aV\u613f
asV\u79c4
(lp5154
V\u8014
asV\u894f
(lp5155
V\u88af
asV\u67d0
(lp5156
V\u53b6
asV\u61d4
(lp5157
V\u51db
asV\U00027a59
(lp5158
V\u8a95
aV\u4725
asV\u375b
(lp5159
V\u5bbf
asV\u58da
(lp5160
V\u5786
asV\u95dc
(lp5161
V\u5173
asV\u52de
(lp5162
V\u52b3
aV\uf92f
asV\u9c6d
(lp5163
V\u9c9a
asV\u5373
(lp5164
V\u537d
aV\u537d
asV\u477b
(lp5165
V\U00027e55
asV\u6000
(lp5166
V\u61f7
asV\u6c08
(lp5167
V\u6be1
asV\u568f
(lp5168
V\u5694
asV\u9f95
(lp5169
V\u9f9b
asV\u71a1
(lp5170
V\U000242cf
asV\u9322
(lp5171
V\u94b1
asV\u77a5
(lp5172
V\u82e4
asV\u9926
(lp5173
V\U0002b5e0
asV\u5c28
(lp5174
V\u72f5
aV\u9f8d
asV\u652e
(lp5175
V\u64c3
asV\u8cb3
(lp5176
V\u8d30
aV\u4e8c
asV\u6b32
(lp5177
V\u617e
aV\u617e
asV\u92b7
(lp5178
V\u9500
asV\u98bb
(lp5179
V\u98d6
asV\u3a3c
(lp5180
V\u6482
asV\u64c3
(lp5181
V\u652e
asV\u8c48
(lp5182
V\u5c82
asV\u554e
(lp5183
V\u5fe4
asV\u7cd3
(lp5184
V\u7a40
asV\U00022156
(lp5185
V\u7c3e
asV\u6a5c
(lp5186
V\u6a5b
asV\u4edf
(lp5187
V\u5343
asV\u91e1
(lp5188
V\u91dc
asV\u7060
(lp5189
V\u6f24
asV\u7664
(lp5190
V\u7596
asV\u9de9
(lp5191
V\u6c05
asV\u63ed
(lp5192
V\u63b2
asV\u426c
(lp5193
V\U0002b088
asV\u8b72
(lp5194
V\u8b93
asV\u75f9
(lp5195
V\u75fa
asV\u9d7e
(lp5196
V\u9e4d
asV\u6382
(lp5197
V\u6541
asV\u6986
(lp5198
V\u6961
asV\u4d09
(lp5199
V\u9e6e
asV\u758e
(lp5200
V\u758f
asV\u9c13
(lp5201
V\u9cc3
asV\u7b92
(lp5202
V\u5e1a
asV\u681b
(lp5203
V\u8354
asV\u96a4
(lp5204
V\u58a4
asV\u832d
(lp5205
V\u6912
asV\u62ac
(lp5206
V\u64e1
asV\ufa1c
(lp5207
V\u9756
asV\u8931
(lp5208
V\u8922
asV\u8f35
(lp5209
V\u8f55
asV\u5237
(lp5210
V\u355e
asV\u74b8
(lp5211
V\u7478
asV\U00020b74
(lp5212
V\u3441
asV\u6141
(lp5213
V\u3975
asV\u6d49
(lp5214
V\u6eae
asV\uf951
(lp5215
V\u964b
asV\u58d0
(lp5216
V\u74bd
asV\u9bd2
(lp5217
V\u9cac
asV\u885b
(lp5218
V\u885e
aV\u536b
asV\u67da
(lp5219
V\u6afe
asV\u8e5f
(lp5220
V\u8de1
asV\u9463
(lp5221
V\u93e2
aV\u9573
asV\uf9e6
(lp5222
V\u7f79
asV\u5d69
(lp5223
V\u5d27
asV\U00023ce8
(lp5224
V\U000200a4
asV\u51f6
(lp5225
V\u342b
aV\u5147
asV\u9afc
(lp5226
V\u9b05
asV\u7e7f
(lp5227
V\u4340
aV\u8964
asV\u8c89
(lp5228
V\u72e2
asV\u928d
(lp5229
V\u94da
asV\uf910
(lp5230
V\u863f
asV\u9e95
(lp5231
V\u9e87
asV\u861a
(lp5232
V\u85d3
asV\uf9b1
(lp5233
V\u9234
asV\u9826
(lp5234
V\u988f
asV\u81ab
(lp5235
V\u818b
asV\u42ad
(lp5236
V\U00025e85
asV\u93b7
(lp5237
V\U00028c3e
asV\u763a
(lp5238
V\u763b
aV\u7618
asV\u5abd
(lp5239
V\u5988
asV\u7c3e
(lp5240
V\u5e18
aV\uf9a6
asV\u77cf
(lp5241
V\u77c8
asV\u7dd3
(lp5242
V\u7eec
asV\u9f54
(lp5243
V\u9f80
asV\U0002a056
(lp5244
V\U0002a24c
asV\u6558
(lp5245
V\u53d9
aV\u654d
asV\u8add
(lp5246
V\u8c1e
asV\u4fdf
(lp5247
V\u7ae2
aV\u7ae2
asV\u7160
(lp5248
V\u70b8
asV\u5be7
(lp5249
V\u5b81
asV\u9ce9
(lp5250
V\u9e20
asV\u7d68
(lp5251
V\u7ed2
asV\u62ed
(lp5252
V\U00022091
asV\u8a72
(lp5253
V\u8be5
asV\u9076
(lp5254
V\u7e5e
asV\u967a
(lp5255
V\u96aa
asV\u5b7c
(lp5256
V\u5b7d
aV\u5b7d
asV\U00020503
(lp5257
V\u516e
asV\u8598
(lp5258
V\u8359
asV\u8b9c
(lp5259
V\u8c20
asV\u7523
(lp5260
V\u7522
asV\u52a2
(lp5261
V\u52f5
asV\u63ac
(lp5262
V\u530a
asV\u8831
(lp5263
V\u86ca
asV\u8e35
(lp5264
V\u6b71
asV\u75b8
(lp5265
V\u7649
asV\u6645
(lp5266
V\u70dc
asV\u8eca
(lp5267
V\u8f66
asV\u53cc
(lp5268
V\u96d9
asV\u9ad2
(lp5269
V\u810f
asV\u7e55
(lp5270
V\u7f2e
asV\U0002895b
(lp5271
V\U00028c40
asV\u8f5f
(lp5272
V\u8f70
asV\u72e2
(lp5273
V\u8c89
asV\u5665
(lp5274
V\u54dd
asV\u5c69
(lp5275
V\U0002aa17
aV\u8e7a
asV\u616b
(lp5276
V\u6002
asV\u676f
(lp5277
V\u76c3
aV\u76c3
asV\u8ff4
(lp5278
V\u5efb
aV\u56de
asV\u7377
(lp5279
V\u72b7
asV\uf97b
(lp5280
V\u7ce7
asV\u6200
(lp5281
V\u604b
aV\u604b
aV\uf990
asV\u8585
(lp5282
V\u8320
asV\u6e08
(lp5283
V\u6fdf
asV\u548f
(lp5284
V\u8a60
asV\u9b91
(lp5285
V\u9c8d
asV\ufa10
(lp5286
V\u585a
asV\u3912
(lp5287
V\u7b28
asV\u7c14
(lp5288
V\u7c11
asV\u851a
(lp5289
V\u5d8e
asV\u8f1e
(lp5290
V\u8f8b
asV\u5220
(lp5291
V\u522a
asV\u36a3
(lp5292
V\u59e3
asV\u9b26
(lp5293
V\u9b25
aV\u9b25
asV\u7fa9
(lp5294
V\u4e49
aV\u4e49
asV\u8eb3
(lp5295
V\u8eac
asV\u6932
(lp5296
V\u3b4f
asV\u7336
(lp5297
V\u72b9
aV\u72b9
asV\u9abb
(lp5298
V\u80ef
asV\u753a
(lp5299
V\u5722
asV\u7f3e
(lp5300
V\u74f6
aV\u74f6
asV\u74cf
(lp5301
V\u73d1
asV\u574e
(lp5302
V\u57f3
asV\u9c54
(lp5303
V\u9c53
aV\u9cdd
asV\u89dd
(lp5304
V\u7274
aV\u7274
asV\u685c
(lp5305
V\u6afb
asV\u93e1
(lp5306
V\u955c
asV\u7260
(lp5307
V\u5b83
asV\u56e3
(lp5308
V\u5718
asV\u95e5
(lp5309
V\u95fc
asV\u7464
(lp5310
V\u7476
asV\u8972
(lp5311
V\u88ad
asV\u6df5
(lp5312
V\u6e0a
asV\u9376
(lp5313
V\u9536
asV\u5678
(lp5314
V\u5428
asV\uf9fd
(lp5315
V\u4ec0
asV\u6182
(lp5316
V\u5fe7
asV\u920b
(lp5317
V\U00028c42
asV\u510d
(lp5318
V\u50bb
asV\u940f
(lp5319
V\U00028c54
asV\uf992
(lp5320
V\u6f23
asV\u5d15
(lp5321
V\u5d16
asV\u889c
(lp5322
V\u896a
asV\u92a0
(lp5323
V\u94d1
asV\u51a2
(lp5324
V\u585a
asV\u7827
(lp5325
V\u78aa
aV\u78aa
asV\u9ea8
(lp5326
V\U0002a38a
asV\u8b31
(lp5327
V\u560d
asV\u76b8
(lp5328
V\u76b2
asV\u993d
(lp5329
V\u994b
aV\u994b
asV\u78bc
(lp5330
V\u7801
asV\u5c3f
(lp5331
V\uf9bd
asV\u5ad0
(lp5332
V\u5583
asV\u99d2
(lp5333
V\u9a79
asV\u7d55
(lp5334
V\u7edd
asV\u8a5b
(lp5335
V\u8bc5
asV\u9663
(lp5336
V\U00028e2c
aV\u9635
asV\U00025565
(lp5337
V\U00025430
asV\u9867
(lp5338
V\u980b
aV\u987e
asV\u7be6
(lp5339
V\u7b13
asV\u646f
(lp5340
V\u631a
asV\u8af0
(lp5341
V\U0002b370
asV\u8cf4
(lp5342
V\u983c
aV\u8d56
asV\u98fc
(lp5343
V\u98e4
aV\u9972
aV\ufa2b
asV\u6504
(lp5344
V\u6445
asV\u8e89
(lp5345
V\u8db8
asV\uf92c
(lp5346
V\u90ce
asV\u5f93
(lp5347
V\u5f9e
asV\U00021c95
(lp5348
V\u5c5c
asV\u7d14
(lp5349
V\u7eaf
asV\u8216
(lp5350
V\u92ea
aV\u92ea
asV\u841a
(lp5351
V\u8600
asV\u689d
(lp5352
V\u6761
asV\u39a7
(lp5353
V\u61af
asV\u85af
(lp5354
V\u85f7
asV\u56b9
(lp5355
V\U00021148
asV\u743a
(lp5356
V\u73d0
asV\u9dbf
(lp5357
V\u9e5a
asV\u7e3e
(lp5358
V\u7ee9
asV\U00020544
(lp5359
V\u51f9
asV\u69c7
(lp5360
V\u69d9
asV\u5852
(lp5361
V\u57d8
asV\u86d9
(lp5362
V\u9f03
asV\u88dd
(lp5363
V\u88c5
asV\u695c
(lp5364
V\u80e1
asV\u7360
(lp5365
V\u4764
asV\u6af1
(lp5366
V\u8616
aV\u8616
asV\u9276
(lp5367
V\u94cf
asV\u78fd
(lp5368
V\u589d
aV\u7857
asV\u597c
(lp5369
V\u59f9
asV\u3dff
(lp5370
V\U00024237
asV\u8907
(lp5371
V\u590d
aV\u5fa9
asV\u4e09
(lp5372
V\u53c1
asV\u9f13
(lp5373
V\u76bc
asV\u8798
(lp5374
V\u87fb
asV\u6d1f
(lp5375
V\u6d95
asV\u4e9e
(lp5376
V\u4e9a
aV\u4e9c
asV\u50a2
(lp5377
V\u5bb6
asV\u95a4
(lp5378
V\u5408
asV\uf927
(lp5379
V\u881f
asV\u432b
(lp5380
V\u7e9c
asV\u8a31
(lp5381
V\u8bb8
asV\u6bb0
(lp5382
V\U0002688c
aV\u3c69
asV\U00028ef2
(lp5383
V\u7f45
asV\u5137
(lp5384
V\u4fea
asV\U00029639
(lp5385
V\U00029668
asV\u983d
(lp5386
V\u9839
asV\uf9bc
(lp5387
V\u5bee
asV\u6241
(lp5388
V\u78a5
asV\u4fc8
(lp5389
V\u56b3
asV\u8cca
(lp5390
V\u8d3c
aV\u621d
asV\u51cc
(lp5391
V\uf955
asV\u5dd4
(lp5392
V\u5dc5
aV\u5dd3
asV\u62d6
(lp5393
V\u62d5
aV\u62d5
asV\u64da
(lp5394
V\u636e
aV\u62e0
asV\u636b
(lp5395
V\u626a
asV\u8df4
(lp5396
V\u8e39
asV\u5efe
(lp5397
V\u5eff
asV\u8989
(lp5398
V\u7f88
asV\u978d
(lp5399
V\u978c
asV\u528f
(lp5400
V\u34e5
asV\u6199
(lp5401
V\u559c
asV\u4e1c
(lp5402
V\u6771
asV\uf931
(lp5403
V\u6ad3
asV\u9722
(lp5404
V\u9721
aV\u9721
asV\u9d26
(lp5405
V\u9e2f
asV\uf9a9
(lp5406
V\u56f9
asV\u9b2a
(lp5407
V\u9b25
asV\u6f32
(lp5408
V\u6da8
asV\u96b7
(lp5409
V\u96b8
aV\u96b8
asV\uf93e
(lp5410
V\u83c9
asV\u514e
(lp5411
V\u5154
aV\u5154
asV\u5f52
(lp5412
V\u6b78
asV\u81d9
(lp5413
V\u80ed
aV\u80ed
asV\u95e1
(lp5414
V\u9610
asV\u7460
(lp5415
V\u7409
asV\u50e3
(lp5416
V\u50ed
asV\u99e9
(lp5417
V\U000299f4
asV\u7868
(lp5418
V\u7817
asV\u816e
(lp5419
V\u984b
asV\u4c70
(lp5420
V\U00029f8b
asV\u5078
(lp5421
V\u5077
aV\u5077
asV\u937a
(lp5422
V\u9517
asV\u7ffd
(lp5423
V\u7fd9
aV\u7fd9
asV\u8003
(lp5424
V\u6537
aV\u6537
asV\u940b
(lp5425
V\u94f4
asV\u570d
(lp5426
V\u56f4
aV\u56f2
asV\u5d11
(lp5427
V\u5d10
asV\u9813
(lp5428
V\u987f
asV\u98a8
(lp5429
V\u98ce
asV\uf9c6
(lp5430
V\u962e
asV\u6ab4
(lp5431
V\u7a6b
asV\u5637
(lp5432
V\u55e5
asV\u9139
(lp5433
V\u90f0
asV\u70b8
(lp5434
V\u7160
asV\u5c3b
(lp5435
V\u4bcc
asV\u5a3f
(lp5436
V\u5a40
asV\u6541
(lp5437
V\u6382
asV\u774d
(lp5438
V\U0002afa2
asV\u56cc
(lp5439
V\u8607
asV\u91ce
(lp5440
V\u57dc
aV\u57dc
asV\u9fd2
(lp5441
V\u9fd3
asV\u63da
(lp5442
V\u626c
asV\u8a5f
(lp5443
V\u8b8b
asV\u77e2
(lp5444
V\u7b36
asV\u7de6
(lp5445
V\u7f0c
asV\u5969
(lp5446
V\u5333
aV\u5941
aV\u5333
asV\u7bea
(lp5447
V\u7b8e
aV\u7afe
asV\u626f
(lp5448
V\u64a6
aV\u64a6
asV\u8cf0
(lp5449
V\u4790
asV\u4ff2
(lp5450
V\u6548
asV\u55f6
(lp5451
V\u54d4
asV\u3f7d
(lp5452
V\u75fc
asV\u968d
(lp5453
V\u582d
asV\u7d10
(lp5454
V\u7ebd
aV\uf9cf
asV\u7b14
(lp5455
V\u7b46
asV\U0002821a
(lp5456
V\U00028249
asV\u6e9d
(lp5457
V\u6c9f
asV\u4f1c
(lp5458
V\u5005
asV\u74a1
(lp5459
V\u740e
asV\u78a9
(lp5460
V\u7855
asV\u85ab
(lp5461
V\u85b0
asV\u9a2a
(lp5462
V\U00029a04
asV\u89b3
(lp5463
V\u89c0
asV\u9dbb
(lp5464
V\u9e58
asV\u723a
(lp5465
V\u7237
asV\u5ebd
(lp5466
V\u5bd3
asV\u61c3
(lp5467
V\u52e4
asV\u6fc7
(lp5468
V\u6f80
asV\u9d50
(lp5469
V\u9e40
asV\uf9d3
(lp5470
V\u9678
asV\U000203e2
(lp5471
V\U00020257
asV\u6158
(lp5472
V\u60e8
asV\u6f5c
(lp5473
V\u6f5b
asV\u51e3
(lp5474
V\u51e1
aV\u51e1
asV\u92e5
(lp5475
V\u9503
asV\u98e9
(lp5476
V\u9968
asV\uf968
(lp5477
V\u6ccc
asV\u806e
(lp5478
V\u806f
asV\u3dfb
(lp5479
V\u7173
asV\u927a
(lp5480
V\u94d2
asV\u8103
(lp5481
V\u8106
asV\u8f07
(lp5482
V\u8f81
asV\u560d
(lp5483
V\u8b31
aV\u55bd
asV\u930f
(lp5484
V\u94d4
asV\u9913
(lp5485
V\u997f
asV\u7e92
(lp5486
V\u7e8f
asV\u6717
(lp5487
V\uf929
asV\u8198
(lp5488
V\u81d5
asV\u6d1b
(lp5489
V\uf915
asV\u56a2
(lp5490
V\u56ca
asV\u862d
(lp5491
V\u5170
asV\u67ac
(lp5492
V\u6960
asV\u9039
(lp5493
V\u9054
asV\u6441
(lp5494
V\u6069
asV\u6245
(lp5495
V\u624a
asV\u8aca
(lp5496
V\u97ab
asV\u90ce
(lp5497
V\u90de
asV\u9ed2
(lp5498
V\u9ed1
asV\u5bd4
(lp5499
V\u5be6
asV\u62da
(lp5500
V\u6283
asV\u4e5d
(lp5501
V\u7396
asV\u8b5f
(lp5502
V\u566a
aV\u566a
asV\u5461
(lp5503
V\u543b
asV\u9f67
(lp5504
V\u56d3
aV\u5699
asV\u5869
(lp5505
V\u9e7d
aV\u9e7d
asV\u7aea
(lp5506
V\u8c4e
aV\u8c4e
asV\u87ec
(lp5507
V\u8749
asV\u6973
(lp5508
V\u6885
asV\u54f6
(lp5509
V\u54a9
asV\uf9d5
(lp5510
V\u5d19
asV\u7b7f
(lp5511
V\u7be0
asV\U0002a502
(lp5512
V\u9f0e
asV\u958d
(lp5513
V\U00028e02
asV\u508f
(lp5514
V\u642a
asV\u9f91
(lp5515
V\u4dae
asV\u7e10
(lp5516
V\u76ba
aV\u7ec9
asV\u7814
(lp5517
V\u63c5
aV\u784e
asV\u8716
(lp5518
V\u86d4
asV\u6399
(lp5519
V\u6323
asV\u811a
(lp5520
V\u8173
asV\u5024
(lp5521
V\u503c
aV\u503c
asV\u80af
(lp5522
V\u80bb
asV\u53b9
(lp5523
V\u53f4
asV\u9ebb
(lp5524
V\u8534
aV\u83fb
asV\u5dbd
(lp5525
V\u5cb3
asV\u944c
(lp5526
V\u9554
asV\u70cf
(lp5527
V\u4e4c
asV\u9854
(lp5528
V\u984f
asV\u6258
(lp5529
V\u62d3
asV\u7064
(lp5530
V\u6ee6
asV\u65ed
(lp5531
V\u65ef
asV\u6ff1
(lp5532
V\u6ee8
asV\u34f7
(lp5533
V\u5293
asV\u8203
(lp5534
V\u8204
asV\u6582
(lp5535
V\u655b
asV\u6f86
(lp5536
V\u6d47
asV\u9a13
(lp5537
V\u9a57
asV\u6417
(lp5538
V\u64e3
aV\u6363
aV\u64e3
asV\u8298
(lp5539
V\u853d
asV\u6e1b
(lp5540
V\u51cf
aV\u51cf
asV\u4b9e
(lp5541
V\U00029a01
asV\u96a0
(lp5542
V\u9690
aV\u96b1
asV\u852d
(lp5543
V\u5ed5
aV\u836b
asV\u8935
(lp5544
V\u7e2d
asV\u6b49
(lp5545
V\u6b20
asV\u754d
(lp5546
V\u754c
asV\u54cc
(lp5547
V\u5471
asV\u5ed0
(lp5548
V\u53a9
aV\u5ec4
asV\u7955
(lp5549
V\u79d8
aV\u79d8
asV\u8457
(lp5550
V\u7740
aV\u7740
asV\U00022cdc
(lp5551
V\u6f07
asV\u75e2
(lp5552
V\uf9e5
asV\u9c67
(lp5553
V\u9ce2
asV\u7fe6
(lp5554
V\u526a
asV\uf9ea
(lp5555
V\u96e2
asV\u8ef0
(lp5556
V\u8f29
asV\u88f4
(lp5557
V\u88f5
asV\u92f8
(lp5558
V\u952f
asV\u7e7b
(lp5559
V\U00026221
asV\u51fa
(lp5560
V\u5c80
asV\u9cfc
(lp5561
V\U0002a243
asV\u8085
(lp5562
V\u8083
aV\u7c9b
asV\u750c
(lp5563
V\u74ef
asV\u7f10
(lp5564
V\u7dda
asV\uf914
(lp5565
V\u6a02
asV\u8616
(lp5566
V\u6af1
aV\u8617
asV\U00029e26
(lp5567
V\U00029f86
asV\u7aa9
(lp5568
V\u7a9d
asV\u622e
(lp5569
V\uf9d2
asV\u4eb1
(lp5570
V\u591c
asV\u7636
(lp5571
V\u55fd
asV\u52b9
(lp5572
V\u6548
aV\u6548
asV\u5cbd
(lp5573
V\u5d20
asV\u99bf
(lp5574
V\u9a62
asV\u7a3e
(lp5575
V\u7a3f
asV\u4e46
(lp5576
V\u4e45
asV\u77cb
(lp5577
V\u77d6
asV\u524e
(lp5578
V\u5239
asV\u6d5c
(lp5579
V\u6ff1
asV\u4f70
(lp5580
V\u767e
aV\u767e
asV\u9676
(lp5581
V\u530b
asV\u72f9
(lp5582
V\u965c
aV\u72ed
asV\u5378
(lp5583
V\u7f37
asV\u907a
(lp5584
V\u9057
asV\u5d7c
(lp5585
V\U00021db4
asV\u6482
(lp5586
V\u3a3c
asV\u8d07
(lp5587
V\u8d5f
asV\u9b13
(lp5588
V\U00029bed
asV\u7c92
(lp5589
V\uf9f9
asV\u91a4
(lp5590
V\u91ac
asV\u5ea6
(lp5591
V\ufa0b
asV\u65ac
(lp5592
V\u65a9
asV\u412f
(lp5593
V\U0002219e
asV\u69b4
(lp5594
V\u6a4a
asV\u5537
(lp5595
V\u5539
asV\u9239
(lp5596
V\u94cd
asV\u6641
(lp5597
V\u671d
asV\u8ec6
(lp5598
V\u4f53
aV\u9ad4
asV\u88ca
(lp5599
V\u8885
aV\u5b1d
asV\u66d6
(lp5600
V\u77b9
aV\u66a7
asV\u4259
(lp5601
V\U00025b00
asV\u895f
(lp5602
V\u887f
asV\u6ade
(lp5603
V\u6a7c
asV\u5065
(lp5604
V\u5fa4
asV\u78ea
(lp5605
V\u5d14
asV\u6b73
(lp5606
V\u6b72
aV\u6b72
asV\u89f4
(lp5607
V\u89de
asV\u797f
(lp5608
V\u7984
aV\uf93c
asV\U0002a106
(lp5609
V\U0002a254
asV\u9b8d
(lp5610
V\u9c8f
asV\ufa0c
(lp5611
V\u5140
asV\u6d99
(lp5612
V\u6dda
asV\u851e
(lp5613
V\u848c
asV\u79a1
(lp5614
V\u7943
asV\u9b22
(lp5615
V\u9b02
aV\u9b13
asV\u7fa5
(lp5616
V\u7f9f
asV\u5428
(lp5617
V\u554d
asV\u6332
(lp5618
V\u6331
asV\u7936
(lp5619
V\u7f50
asV\u7f3a
(lp5620
V\u6b20
asV\u753e
(lp5621
V\u83d1
asV\u8e44
(lp5622
V\u8e4f
asV\u62c7
(lp5623
V\U00027ff9
asV\u9a4c
(lp5624
V\u9a95
asV\u5352
(lp5625
V\u461a
aV\u5346
asV\u9654
(lp5626
V\u5793
asV\u8dd9
(lp5627
V\u8d84
asV\U0002690e
(lp5628
V\u81ef
asV\u83dd
(lp5629
V\u853d
asV\u99e1
(lp5630
V\u7f75
asV\u52e7
(lp5631
V\u52f8
asV\u67f5
(lp5632
V\u6805
asV\u7df9
(lp5633
V\u7f07
asV\u8207
(lp5634
V\u4e0e
aV\u4e0e
asV\u980b
(lp5635
V\u9867
aV\u9867
asV\u9e0f
(lp5636
V\u9e72
asV\u9413
(lp5637
V\u9566
asV\u5715
(lp5638
V\u5716
asV\u8c98
(lp5639
V\u8c8a
asV\u7c23
(lp5640
V\u7bd1
asV\u51a6
(lp5641
V\u5bc7
asV\u66b4
(lp5642
V\u8663
aV\ufa06
asV\u933d
(lp5643
V\u92c4
asV\u563f
(lp5644
V\u9ed8
asV\u6f45
(lp5645
V\u704c
asV\u6549
(lp5646
V\u4f8e
asV\u87ca
(lp5647
V\u8765
asV\u7b4d
(lp5648
V\u7b0b
aV\u7b0b
asV\u7151
(lp5649
V\u716e
aV\u716e
asV\u8a57
(lp5650
V\u8bc7
asV\u69d6
(lp5651
V\u6a50
asV\u6fda
(lp5652
V\u6e81
asV\u865f
(lp5653
V\u53f7
aV\u53f7
asV\u9c63
(lp5654
V\u9ce3
asV\u7be2
(lp5655
V\u69d3
asV\u5f65
(lp5656
V\u5f66
asV\u71e6
(lp5657
V\u707f
asV\u34e8
(lp5658
V\u523e
asV\u6e6f
(lp5659
V\u6c64
asV\u6473
(lp5660
V\u62a0
asV\uf955
(lp5661
V\u51cc
asV\u92fc
(lp5662
V\u94a2
asV\u8e85
(lp5663
V\u4831
asV\u9091
(lp5664
V\u961d
asV\u9695
(lp5665
V\u78d2
aV\u9668
aV\u6b92
asV\uf92e
(lp5666
V\u51b7
asV\u629d
(lp5667
V\u62d7
asV\u5920
(lp5668
V\u591f
asV\U000289ab
(lp5669
V\u4980
asV\u962a
(lp5670
V\u5742
asV\u8faf
(lp5671
V\u8fa8
aV\u8fa9
asV\u85b3
(lp5672
V\u44d5
asV\u6232
(lp5673
V\u620f
asV\u91bb
(lp5674
V\u916c
asV\u7e3a
(lp5675
V\U00026210
asV\u8940
(lp5676
V\U0002b300
asV\u8f44
(lp5677
V\u938b
aV\u8f96
asV\u8548
(lp5678
V\u83cc
asV\uf9cb
(lp5679
V\u6e9c
asV\u9754
(lp5680
V\u975d
asV\u8cd9
(lp5681
V\u8d52
asV\u635c
(lp5682
V\u641c
asV\u98e1
(lp5683
V\u9910
asV\uf960
(lp5684
V\u6012
asV\u5de3
(lp5685
V\u5de2
asV\u60f1
(lp5686
V\u607c
asV\u66f5
(lp5687
V\u66f3
asV\u7cf9
(lp5688
V\u7cf8
aV\u7e9f
asV\u9e7a
(lp5689
V\u9e7e
asV\u72fd
(lp5690
V\u72c8
asV\u947e
(lp5691
V\u92ae
asV\u8d03
(lp5692
V\U00027e57
asV\u4e05
(lp5693
V\u4e0b
asV\u5011
(lp5694
V\u4eec
asV\u611b
(lp5695
V\u7231
asV\u839c
(lp5696
V\u84e7
asV\u671f
(lp5697
V\u671e
asV\u9fa4
(lp5698
V\u8ae7
asV\u95a8
(lp5699
V\u95fa
asV\u8a2d
(lp5700
V\u8bbe
asV\u61b0
(lp5701
V\u8b4e
asV\u67b4
(lp5702
V\u62d0
asV\u5b37
(lp5703
V\u5aeb
asV\u9c39
(lp5704
V\u9ca3
asV\u7db8
(lp5705
V\u7eb6
asV\u513b
(lp5706
V\u5018
aV\u50a5
asV\u923d
(lp5707
V\u94b8
asV\u6841
(lp5708
V\u822a
asV\u8ac2
(lp5709
V\u8c04
asV\u80c6
(lp5710
V\u81bd
asV\u7a4d
(lp5711
V\u79ef
asV\u5bcc
(lp5712
V\u51a8
asV\u7051
(lp5713
V\u6d12
aV\u6d12
asV\u92d2
(lp5714
V\u950b
asV\u68d6
(lp5715
V\u67a8
asV\u4c59
(lp5716
V\U00029f88
asV\u875f
(lp5717
V\u732c
aV\u732c
asV\u5861
(lp5718
V\u7ab4
aV\u586b
asV\u7ae2
(lp5719
V\u4fdf
aV\u4fdf
asV\u76ea
(lp5720
V\u8361
asV\u6f6f
(lp5721
V\u6d54
asV\u42f2
(lp5722
V\u7e69
asV\u9df8
(lp5723
V\u9e6c
asV\u777f
(lp5724
V\u53e1
aV\u53e1
asV\u8b81
(lp5725
V\u8b2b
asV\u780c
(lp5726
V\u7e96
asV\u7210
(lp5727
V\u7089
aV\u7089
aV\uf932
asV\u8b16
(lp5728
V\u8c21
asV\u6f99
(lp5729
V\u6f5f
asV\u4e18
(lp5730
V\u4e20
asV\u871e
(lp5731
V\u871d
asV\u7ba1
(lp5732
V\u7b66
asV\u5a20
(lp5733
V\u36db
asV\u9326
(lp5734
V\u9526
asV\u5628
(lp5735
V\u562f
asV\u8caf
(lp5736
V\u8d2e
asV\U000243b1
(lp5737
V\u81c7
asV\u45b5
(lp5738
V\u872b
asV\u98b7
(lp5739
V\U0002966a
asV\u5fb9
(lp5740
V\u6f88
aV\u5f7b
asV\u92bb
(lp5741
V\u9511
asV\u7d3a
(lp5742
V\u7ec0
asV\u51bd
(lp5743
V\u6d0c
asV\u773e
(lp5744
V\u4f17
aV\u8846
asV\u8a40
(lp5745
V\U00027baa
asV\u60c7
(lp5746
V\u6566
asV\u7acb
(lp5747
V\uf9f7
asV\u984c
(lp5748
V\u9898
asV\u5f4e
(lp5749
V\u5f2f
asV\u5152
(lp5750
V\u513f
asV\u9454
(lp5751
V\u9572
asV\u8fd9
(lp5752
V\u9019
asV\u9be1
(lp5753
V\u9cb1
asV\u7a60
(lp5754
V\u79fe
asV\u5ee3
(lp5755
V\u5e7f
asV\u9de5
(lp5756
V\u9e36
asV\u7c64
(lp5757
V\u7c56
asV\u7668
(lp5758
V\u970d
asV\u7ff9
(lp5759
V\u7fd8
asV\u5e78
(lp5760
V\u5016
aV\u5016
asV\u6982
(lp5761
V\u69e9
aV\u69ea
asV\u8007
(lp5762
V\u8008
asV\u6386
(lp5763
V\u39cf
asV\u590d
(lp5764
V\u5fa9
asV\u9c0f
(lp5765
V\u9cbe
asV\u7f8e
(lp5766
V\u7f99
asV\u7192
(lp5767
V\u8367
asV\u6817
(lp5768
V\uf9d9
asV\u621b
(lp5769
V\u621e
asV\u7e23
(lp5770
V\u53bf
asV\u7027
(lp5771
V\u6cf7
asV\u53a6
(lp5772
V\u5ec8
asV\u96a8
(lp5773
V\u968f
asV\u55aa
(lp5774
V\u4e27
asV\u8535
(lp5775
V\u85cf
asV\u543f
(lp5776
V\u544a
aV\u544a
asV\uf94d
(lp5777
V\u6dda
asV\u58cc
(lp5778
V\u58e4
asV\u91d2
(lp5779
V\u91d1
aV\u9485
asV\u8857
(lp5780
V\u4e8d
asV\u4f59
(lp5781
V\u4e88
aV\u4f59
asV\u6dda
(lp5782
V\u6cea
aV\u6cea
aV\uf94d
asV\uf9e2
(lp5783
V\u68a8
asV\u6a6b
(lp5784
V\u6a2a
asV\u6673
(lp5785
V\u6670
asV\u84f4
(lp5786
V\u8493
aV\u83bc
aV\u8493
asV\u7877
(lp5787
V\u9e7c
asV\u5bf6
(lp5788
V\u5b9d
asV\u5dfa
(lp5789
V\u5dfd
asV\uf90c
(lp5790
V\u5948
asV\u9291
(lp5791
V\u94e3
asV\u5793
(lp5792
V\u9654
asV\u8a16
(lp5793
V\u8bab
asV\u861e
(lp5794
V\u859f
aV\u8539
asV\u7ca5
(lp5795
V\u9b3b
asV\u9226
(lp5796
V\u949b
asV\u8daf
(lp5797
V\u8e8d
asV\u87b3
(lp5798
V\u8797
aV\u8797
asV\u93bb
(lp5799
V\u9396
asV\u50bd
(lp5800
V\u615e
asV\u95bf
(lp5801
V\u960c
asV\u6fc3
(lp5802
V\u6d53
asV\u61c7
(lp5803
V\u6073
asV\u7bcb
(lp5804
V\u5327
aV\u7ba7
asV\u994c
(lp5805
V\u9994
asV\u7dcf
(lp5806
V\u7e3d
asV\u77d3
(lp5807
V\u772c
asV\u5052
(lp5808
V\u8569
asV\u80dd
(lp5809
V\u90c5
asV\u9ce5
(lp5810
V\u9e1f
asV\U000296e9
(lp5811
V\U00029803
asV\u8e6e
(lp5812
V\u8e9a
asV\u8072
(lp5813
V\u58f0
aV\u58f0
asV\u5f78
(lp5814
V\u4f00
asV\u9c7a
(lp5815
V\u9ca1
asV\u8f03
(lp5816
V\u8f83
asV\u8107
(lp5817
V\u8105
aV\u8105
asV\u7e8e
(lp5818
V\u7e96
aV\u7e96
asV\uf919
(lp5819
V\u916a
asV\U000258a2
(lp5820
V\u416a
asV\u882d
(lp5821
V\u8702
asV\u8435
(lp5822
V\u83b4
asV\u533b
(lp5823
V\u91ab
asV\u4bc0
(lp5824
V\u4bc5
asV\u88c2
(lp5825
V\uf9a0
asV\u6649
(lp5826
V\u664b
aV\u664b
asV\u9ece
(lp5827
V\uf989
asV\u5c65
(lp5828
V\uf9df
asV\u9167
(lp5829
V\u916c
asV\u4eee
(lp5830
V\u5047
asV\u83f0
(lp5831
V\u83c7
aV\u82fd
asV\u85f4
(lp5832
V\u860a
asV\uf977
(lp5833
V\u4eae
asV\u737b
(lp5834
V\u732e
aV\u732e
asV\u5cfa
(lp5835
V\u786c
asV\u91fc
(lp5836
V\u528d
asV\u8d81
(lp5837
V\u8d82
aV\u8d82
asV\u8b85
(lp5838
V\u8c09
asV\u9f8d
(lp5839
V\u9f92
aV\u9f99
asV\u9591
(lp5840
V\u95f2
asV\u8d16
(lp5841
V\u8d4e
asV\u8b1a
(lp5842
V\u8ae1
aV\u8c25
asV\u5c20
(lp5843
V\u9bae
asV\u8cab
(lp5844
V\u8d2f
asV\u4fad
(lp5845
V\u5118
asV\u80b3
(lp5846
V\u543b
asV\u68c3
(lp5847
V\u68a8
asV\u66c7
(lp5848
V\u6619
asV\u7c60
(lp5849
V\u7b3c
aV\uf944
asV\u7a64
(lp5850
V\u7cef
asV\u91e9
(lp5851
V\u9492
asV\u896e
(lp5852
V\u5e5e
asV\uf9f9
(lp5853
V\u7c92
asV\u9b7a
(lp5854
V\u9c84
asV\u8803
(lp5855
V\u87ba
asV\u8607
(lp5856
V\u82cf
asV\u6586
(lp5857
V\u6569
aV\u6585
asV\u5f0d
(lp5858
V\u4e8c
asV\u9a0f
(lp5859
V\u9a90
asV\u798e
(lp5860
V\u796f
asV\u9013
(lp5861
V\u905e
aV\u905e
asV\u7627
(lp5862
V\u759f
asV\u90a8
(lp5863
V\u6751
asV\u53aa
(lp5864
V\u5ed1
asV\u8f2d
(lp5865
V\u8edf
asV\u9939
(lp5866
V\u7cd6
aV\u7cd6
asV\u78b8
(lp5867
V\u781c
asV\u973d
(lp5868
V\u9701
asV\u76bc
(lp5869
V\u9f13
asV\u6d41
(lp5870
V\uf9ca
asV\u8fc2
(lp5871
V\u9047
asV\u5ecc
(lp5872
V\u8c78
asV\u99ce
(lp5873
V\U000299e8
asV\u97d2
(lp5874
V\u9798
asV\u61de
(lp5875
V\u8499
asV\u5169
(lp5876
V\u4e24
aV\u4e21
asV\u73ea
(lp5877
V\u572d
asV\u51fe
(lp5878
V\u51fd
asV\u8a85
(lp5879
V\u8bdb
asV\u6b04
(lp5880
V\u680f
aV\uf91d
asV\u8089
(lp5881
V\u5b8d
asV\u6108
(lp5882
V\u6109
aV\u7652
asV\u5d8b
(lp5883
V\u5cf6
asV\u9295
(lp5884
V\u9435
asV\u5d20
(lp5885
V\u5cbd
asV\u5b24
(lp5886
V\u5b37
asV\u9426
(lp5887
V\u950e
asV\u81b3
(lp5888
V\u994d
asV\u95bb
(lp5889
V\u9586
aV\u960e
asV\u7a3a
(lp5890
V\u7a1a
asV\u93bf
(lp5891
V\u954e
asV\u703e
(lp5892
V\u6f9c
asV\u7dcb
(lp5893
V\u7eef
asV\u9354
(lp5894
V\u9537
asV\u88d9
(lp5895
V\u5e2c
asV\u59e3
(lp5896
V\u36a3
asV\u886e
(lp5897
V\u889e
asV\u64f1
(lp5898
V\u6401
asV\U0002a1f3
(lp5899
V\U0002a255
asV\u3ff7
(lp5900
V\u7cd9
asV\u8903
(lp5901
V\u88c9
asV\u8707
(lp5902
V\U000272cd
asV\u6486
(lp5903
V\u6487
asV\u788e
(lp5904
V\u7815
asV\u5411
(lp5905
V\u56ae
asV\u4c96
(lp5906
V\U00029f82
asV\u8998
(lp5907
V\u89c7
asV\u651b
(lp5908
V\u64ba
asV\uf923
(lp5909
V\u85cd
asV\u8e2d
(lp5910
V\u3b39
asV\u8431
(lp5911
V\u8432
asV\u8235
(lp5912
V\u67c1
aV\u67c1
asV\u5f37
(lp5913
V\u5f3a
asV\u9839
(lp5914
V\u9893
aV\u983d
asV\uf9b8
(lp5915
V\u96b8
asV\u77bc
(lp5916
V\u7751
asV\u533f
(lp5917
V\uf9eb
asV\u84c6
(lp5918
V\u5e2d
asV\u7e4d
(lp5919
V\u7e61
asV\u53d4
(lp5920
V\u5c17
asV\u8f57
(lp5921
V\u3673
asV\u6cd6
(lp5922
V\u8305
asV\u6ada
(lp5923
V\u6988
asV\u9767
(lp5924
V\u982e
asV\u8fec
(lp5925
V\u5f80
asV\u6b6f
(lp5926
V\u9f52
asV\u6173
(lp5927
V\u60ad
asV\u83f4
(lp5928
V\u5eb5
asV\u7f77
(lp5929
V\u7f62
asV\u5cf6
(lp5930
V\u5c9b
aV\u5d8b
asV\u99f8
(lp5931
V\u9a8e
asV\u5afa
(lp5932
V\u5afb
aV\u5afb
asV\u6804
(lp5933
V\u69ae
asV\u7c0c
(lp5934
V\u96dd
asV\u5293
(lp5935
V\u34f7
asV\u4a18
(lp5936
V\u9730
asV\u659d
(lp5937
V\u659a
asV\u7fa1
(lp5938
V\u7fa8
aV\u7fa8
asV\U00025e20
(lp5939
V\U00025b8b
asV\u79a5
(lp5940
V\u797a
asV\u5824
(lp5941
V\u9684
asV\U00029726
(lp5942
V\U00029806
asV\u5228
(lp5943
V\u924b
asV\U00027cdf
(lp5944
V\U00027cd5
asV\u7f36
(lp5945
V\u7f3b
aV\u7f50
asV\u96bb
(lp5946
V\u53ea
asV\u793a
(lp5947
V\u793b
asV\u733e
(lp5948
V\u736a
asV\u6ac3
(lp5949
V\u67dc
asV\u8844
(lp5950
V\u8842
aV\u8842
asV\u64c7
(lp5951
V\u62e9
aV\u629e
asV\u9054
(lp5952
V\u8fbe
asV\u85dd
(lp5953
V\u827a
aV\u517f
asV\u645c
(lp5954
V\u63bc
asV\u7864
(lp5955
V\u550a
aV\u7856
asV\u4c6c
(lp5956
V\U00029f8a
asV\u61f5
(lp5957
V\u61dc
asV\u9f76
(lp5958
V\u816d
aV\u816d
asV\u547c
(lp5959
V\u8b3c
asV\u937e
(lp5960
V\u949f
asV\u8a03
(lp5961
V\u8ba3
asV\u8407
(lp5962
V\u82cc
asV\u9e0b
(lp5963
V\U0002b6e2
asV\u618a
(lp5964
V\u60eb
asV\u5d0d
(lp5965
V\u5d03
asV\u980f
(lp5966
V\u9883
asV\u7b8e
(lp5967
V\u7bea
asV\u5115
(lp5968
V\u4faa
asV\u6c17
(lp5969
V\u6c23
asV\u4f96
(lp5970
V\u5d19
aV\u4ed1
asV\u8a98
(lp5971
V\u46fb
aV\u8bf1
asV\ufa23
(lp5972
V\U00027eaf
asV\u5da2
(lp5973
V\u5ce3
asV\u92a8
(lp5974
V\u94f5
asV\U00024e2b
(lp5975
V\U00024da7
asV\u51aa
(lp5976
V\u5e42
aV\u7f83
asV\u8135
(lp5977
V\u80a1
asV\u60b4
(lp5978
V\u5ff0
asV\u5c37
(lp5979
V\u5c32
aV\u5c34
asV\u9b39
(lp5980
V\u9b36
asV\u6f41
(lp5981
V\u988d
asV\u4ec0
(lp5982
V\uf9fd
asV\u81ca
(lp5983
V\U000267a3
asV\u95d2
(lp5984
V\u9618
asV\u7155
(lp5985
V\u7199
asV\u865b
(lp5986
V\u865a
asV\u805f
(lp5987
V\u5a7f
asV\u5369
(lp5988
V\u353e
aV\u90e8
asV\u8cec
(lp5989
V\u5e33
aV\u8d26
aV\u5e33
asV\u6273
(lp5990
V\u6500
asV\u767b
(lp5991
V\u8c4b
asV\u8e81
(lp5992
V\u8dae
asV\u8885
(lp5993
V\u5b1d
asV\u5f8b
(lp5994
V\uf9d8
asV\u5393
(lp5995
V\u5d16
asV\u7114
(lp5996
V\u7130
asV\u4b18
(lp5997
V\U0002966e
asV\u649d
(lp5998
V\u39d1
asV\u78a5
(lp5999
V\u6241
asV\u89af
(lp6000
V\u89cf
asV\u7e36
(lp6001
V\u7d77
asV\u54bd
(lp6002
V\u56a5
aV\uf99e
asV\U0002353c
(lp6003
V\u7aff
asV\u723e
(lp6004
V\u5c14
asV\u8f40
(lp6005
V\u8f92
asV\u8944
(lp6006
V\u342e
asV\u79cf
(lp6007
V\u8017
aV\u8017
asV\u9154
(lp6008
V\u9189
asV\u98e5
(lp6009
V\u9966
asV\uf964
(lp6010
V\u78fb
asV\u92e9
(lp6011
V\u94d3
asV\u7368
(lp6012
V\u72ec
aV\u72ec
asV\u8a6e
(lp6013
V\u8be0
asV\u5b78
(lp6014
V\u6588
aV\u5b66
asV\U0002987a
(lp6015
V\U000299e6
asV\u557c
(lp6016
V\u55c1
asV\u608a
(lp6017
V\u54f2
asV\u5c0d
(lp6018
V\u5bf9
aV\u5bf9
asV\uf9c3
(lp6019
V\u907c
asV\u990f
(lp6020
V\u997b
asV\u5611
(lp6021
V\u547c
asV\u3790
(lp6022
V\u5c45
asV\u8b98
(lp6023
V\u56c1
asV\u671b
(lp6024
V\u6722
aV\u6722
asV\u9fa0
(lp6025
V\u7c65
asV\u56a6
(lp6026
V\u5456
asV\U00021148
(lp6027
V\u56b9
asV\u7bb8
(lp6028
V\u7b6f
asV\u573b
(lp6029
V\u57a0
asV\u8cc2
(lp6030
V\u8d42
asV\u86c6
(lp6031
V\U00027405
asV\u80ca
(lp6032
V\u6710
asV\u5dcc
(lp6033
V\u5dd6
asV\u7055
(lp6034
V\u6f13
asV\u815f
(lp6035
V\u81a3
asV\u5e61
(lp6036
V\u65db
asV\u5269
(lp6037
V\u8cf8
aV\u5270
asV\U00022671
(lp6038
V\u345d
asV\uf97f
(lp6039
V\u52f5
asV\u3a79
(lp6040
V\U00022da3
asV\u58fa
(lp6041
V\u58f6
aV\u58f7
asV\u52fe
(lp6042
V\u53e5
asV\u9d89
(lp6043
V\u9e51
asV\u7c08
(lp6044
V\u7bb3
asV\u9116
(lp6045
V\u90e7
asV\U00025418
(lp6046
V\u77f3
asV\u7b9d
(lp6047
V\u94b3
asV\u9d1e
(lp6048
V\u689f
aV\u9e2e
asV\u4020
(lp6049
V\u77bf
asV\u8f2a
(lp6050
V\u8f6e
aV\uf9d7
asV\u53ad
(lp6051
V\u538c
asV\u673a
(lp6052
V\u6a5f
asV\u7ac7
(lp6053
V\u7aa6
asV\u3dc9
(lp6054
V\u71a8
asV\u9c48
(lp6055
V\u9cd5
asV\u5f4a
(lp6056
V\u5f3a
asV\u66cf
(lp6057
V\u5411
asV\u52d7
(lp6058
V\u52d6
asV\u9bdd
(lp6059
V\u9cb4
asV\u5edf
(lp6060
V\u5e99
aV\u5e99
asV\u6060
(lp6061
V\u602a
asV\uf9f1
(lp6062
V\u9130
asV\u5e74
(lp6063
V\uf995
asV\u5101
(lp6064
V\u4fca
asV\u9403
(lp6065
V\u94d9
asV\uf986
(lp6066
V\u95ad
asV\u860f
(lp6067
V\u8614
asV\u658e
(lp6068
V\u9f4b
asV\u6b92
(lp6069
V\u9695
asV\u7e1f
(lp6070
V\u6ebd
aV\u7f1b
asV\u86a4
(lp6071
V\u45a3
asV\u8ca8
(lp6072
V\u8d27
asV\u502b
(lp6073
V\u4f26
aV\uf9d4
asV\u72ac
(lp6074
V\u72ad
asV\u562f
(lp6075
V\u6b57
aV\u5578
aV\u5628
asV\u9931
(lp6076
V\u7cc7
aV\u7cc7
asV\u78b0
(lp6077
V\u63bd
asV\u6abc
(lp6078
V\u6afd
asV\uf9a1
(lp6079
V\u8aaa
asV\u99c6
(lp6080
V\u9a45
asV\u634d
(lp6081
V\u625e
aV\u625e
asV\u85ce
(lp6082
V\u8369
asV\u9257
(lp6083
V\u9246
aV\u94b3
aV\u7b9d
asV\u985b
(lp6084
V\u98a0
asV\u77da
(lp6085
V\u77a9
asV\u7dde
(lp6086
V\u7f0e
asV\u8a67
(lp6087
V\u5bdf
aV\u5bdf
asV\u706b
(lp6088
V\u706c
asV\u766f
(lp6089
V\u81de
asV\u98f0
(lp6090
V\u98ef
asV\u8afc
(lp6091
V\u8c16
asV\u6e7f
(lp6092
V\u6ebc
asV\u9081
(lp6093
V\u8fc8
asV\u5583
(lp6094
V\u8af5
aV\u5ad0
asV\u7d08
(lp6095
V\u7ea8
asV\u418b
(lp6096
V\u79cb
aV\u9f9d
asV\u8e95
(lp6097
V\u8e70
asV\u9016
(lp6098
V\u9037
asV\u91ab
(lp6099
V\u533b
aV\u533b
asV\u8e2a
(lp6100
V\u8e64
asV\U000297af
(lp6101
V\u4b6a
asV\u7a32
(lp6102
V\u7a3b
asV\u5eb5
(lp6103
V\u83f4
aV\u83f4
asV\u83b7
(lp6104
V\u7a6b
asV\u6c3e
(lp6105
V\u6cdb
asV\u9744
(lp6106
V\u972d
asV\u5846
(lp6107
V\u58ea
asV\uf936
(lp6108
V\u865c
asV\u67cf
(lp6109
V\u6822
aV\u6822
asV\u8f54
(lp6110
V\u8f9a
asV\u80e1
(lp6111
V\u695c
asV\u536c
(lp6112
V\u536d
asV\u8076
(lp6113
V\u8042
asV\u867a
(lp6114
V\u8770
asV\u6afd
(lp6115
V\u6abc
asV\u7282
(lp6116
V\u7281
aV\u7281
asV\u7e8a
(lp6117
V\u7d56
aV\u7ea9
aV\u7d4b
asV\u8d13
(lp6118
V\u8d43
asV\u7317
(lp6119
V\u6b39
asV\u5096
(lp6120
V\u4f27
asV\u9598
(lp6121
V\u95f8
asV\uf91b
(lp6122
V\u4e82
asV\u9b9c
(lp6123
V\u9c98
asV\u81a0
(lp6124
V\u80f6
asV\u6523
(lp6125
V\u631b
asV\u8da8
(lp6126
V\u8d8b
aV\u8d8b
asV\u79b0
(lp6127
V\u7962
asV\u7fb4
(lp6128
V\u7fb6
asV\u8a3d
(lp6129
V\u8a6c
asV\u6bbc
(lp6130
V\u3c7f
aV\u58f3
asV\u51c0
(lp6131
V\u6de8
asV\u98c6
(lp6132
V\u98d9
asV\u6851
(lp6133
V\u6852
asV\u8ad2
(lp6134
V\u8c05
asV\u4fd4
(lp6135
V\u4f23
asV\u70d6
(lp6136
V\u707d
asV\u9f5f
(lp6137
V\u9f83
asV\u7cde
(lp6138
V\u7caa
asV\u8563
(lp6139
V\u6a53
asV\u99f0
(lp6140
V\u9a83
asV\u7d73
(lp6141
V\u7edb
asV\u6f7f
(lp6142
V\u6da0
asV\u7404
(lp6143
V\u9799
asV\u7e08
(lp6144
V\u8426
asV\u600c
(lp6145
V\u61f7
asV\u6a10
(lp6146
V\u6ad3
asV\u4e93
(lp6147
V\u5176
asV\u8d95
(lp6148
V\u8d76
aV\u8d76
asV\uf99d
(lp6149
V\u52a3
asV\u63a1
(lp6150
V\u91c7
asV\u65a5
(lp6151
V\u387f
asV\u6fa9
(lp6152
V\u6cf6
asV\u92ab
(lp6153
V\u94ef
asV\uf932
(lp6154
V\u7210
asV\u8cbf
(lp6155
V\u8d38
asV\u6f3e
(lp6156
V\u7001
aV\u7001
asV\u9240
(lp6157
V\u94be
asV\u76c3
(lp6158
V\u676f
asV\u9444
(lp6159
V\u94f8
asV\u78c7
(lp6160
V\u7812
asV\U00023fc9
(lp6161
V\U00023dab
asV\u62cb
(lp6162
V\u629b
asV\U00025d4a
(lp6163
V\U00025b49
asV\u8a50
(lp6164
V\u8bc8
asV\u8c54
(lp6165
V\u8276
asV\u97d9
(lp6166
V\u97ea
asV\u7658
(lp6167
V\u75a0
asV\u5adb
(lp6168
V\u5ad5
asV\u99dd
(lp6169
V\u9a7c
asV\u785c
(lp6170
V\u7841
asV\u6260
(lp6171
V\u640b
asV\u85e5
(lp6172
V\u846f
aV\u836f
aV\u85ac
asV\u8fe9
(lp6173
V\u9087
asV\u71ed
(lp6174
V\u70db
aV\u70db
asV\uf9ae
(lp6175
V\u7469
asV\u67f9
(lp6176
V\u67be
asV\u9807
(lp6177
V\u9878
asV\u5f09
(lp6178
V\u5958
asV\u410d
(lp6179
V\u8721
asV\u5396
(lp6180
V\u5eac
aV\u9f90
asV\ufa1b
(lp6181
V\u798f
asV\u559a
(lp6182
V\u5524
asV\u989c
(lp6183
V\u984f
asV\u5f9e
(lp6184
V\u4ece
aV\u4ece
aV\u5f93
asV\u912d
(lp6185
V\u90d1
asV\u542f
(lp6186
V\u5553
asV\u9b31
(lp6187
V\u6b1d
aV\u90c1
aV\u9b30
asV\u7ab0
(lp6188
V\u7aaf
aV\u7aaf
asV\u5e33
(lp6189
V\u8cec
aV\u5e10
aV\u8cec
asV\u8739
(lp6190
V\u868b
aV\u868b
asV\u66b8
(lp6191
V\u77ad
asV\u7341
(lp6192
V\u72b8
asV\u54c4
(lp6193
V\u95a7
asV\u9bc6
(lp6194
V\U0002b699
asV\u5ec8
(lp6195
V\u53a6
aV\u53a6
asV\u9dca
(lp6196
V\u9e5d
asV\u614d
(lp6197
V\u6120
aV\u6120
asV\u87ce
(lp6198
V\u87a8
asV\u89d2
(lp6199
V\u752a
asV\u9a5b
(lp6200
V\u9a7f
asV\u9c5f
(lp6201
V\u9c8e
asV\u8663
(lp6202
V\u66b4
asV\u6dea
(lp6203
V\u6ca6
asV\u746f
(lp6204
V\u7405
aV\u7405
asV\u7e73
(lp6205
V\u7f34
asV\u9cf4
(lp6206
V\u9e23
asV\u9281
(lp6207
V\u921e
asV\u9485
(lp6208
V\u91d1
asV\u8a91
(lp6209
V\u8bf3
asV\uf9d8
(lp6210
V\u5f8b
asV\u5718
(lp6211
V\u56e2
aV\u56e3
asV\u591c
(lp6212
V\u4eb1
asV\u9e1e
(lp6213
V\u9e3e
asV\u64a5
(lp6214
V\u62e8
asV\u8a26
(lp6215
V\u8af6
asV\u50ad
(lp6216
V\u4f63
asV\u762e
(lp6217
V\u7606
asV\u7832
(lp6218
V\u70ae
asV\u6236
(lp6219
V\u6237
aV\u6238
asV\u643a
(lp6220
V\u651c
asV\u6e3e
(lp6221
V\u6d51
asV\u9340
(lp6222
V\u951d
asV\uf9c7
(lp6223
V\u5289
asV\u5c4a
(lp6224
V\u5c46
asV\U0002a0cd
(lp6225
V\U0002a250
asV\u8b50
(lp6226
V\u5642
asV\u96d9
(lp6227
V\u53cc
aV\u53cc
asV\u5bdb
(lp6228
V\u5bec
asV\uf95c
(lp6229
V\u6a02
asV\u82e1
(lp6230
V\u82e2
asV\u6f68
(lp6231
V\u6f0e
aV\u6f40
asV\u66f9
(lp6232
V\u66fa
asV\u668e
(lp6233
V\u6620
aV\u6620
asV\u8f13
(lp6234
V\u633d
asV\u9798
(lp6235
V\u97d2
asV\u7b1b
(lp6236
V\u7bf4
asV\u7d1f
(lp6237
V\u887f
asV\u8fa8
(lp6238
V\u8faf
aV\u5f01
asV\u5f33
(lp6239
V\u5f2a
asV\u9c35
(lp6240
V\u9cd8
asV\u7db4
(lp6241
V\u7f00
asV\uf921
(lp6242
V\u5d50
asV\u3743
(lp6243
V\u5a29
asV\u7445
(lp6244
V\u73f6
asV\u5fc8
(lp6245
V\u4ec1
asV\u604d
(lp6246
V\u6033
asV\u9b5b
(lp6247
V\u9c7d
asV\u74da
(lp6248
V\u74d2
asV\u39dc
(lp6249
V\u64f8
asV\u4e69
(lp6250
V\u7a3d
asV\u736b
(lp6251
V\u7381
aV\u7303
asV\u6cea
(lp6252
V\u6dda
asV\u91ec
(lp6253
V\u92b2
asV\u56ee
(lp6254
V\U00021219
asV\u58f2
(lp6255
V\u8ce3
asV\u6177
(lp6256
V\u5ffc
asV\U00028cd5
(lp6257
V\U00028e00
asV\u4efe
(lp6258
V\u4f4e
asV\u7204
(lp6259
V\U000241c3
asV\u878d
(lp6260
V\u878e
asV\u8b95
(lp6261
V\u8c30
asV\u7199
(lp6262
V\u7188
aV\u7155
asV\u5018
(lp6263
V\u513b
asV\u931a
(lp6264
V\u94ee
asV\u7f9d
(lp6265
V\u7274
asV\u991e
(lp6266
V\u996f
asV\u8d26
(lp6267
V\u5e33
asV\u98b3
(lp6268
V\u522e
asV\u6536
(lp6269
V\u53ce
asV\u8cbb
(lp6270
V\u8d39
asV\u8abf
(lp6271
V\u8c03
asV\u5d46
(lp6272
V\u5d47
asV\u64cb
(lp6273
V\u6529
aV\u6321
asV\u62cf
(lp6274
V\uf95b
asV\u8c50
(lp6275
V\u4e30
aV\u8c4a
asV\u8a54
(lp6276
V\u8bcf
asV\u91d9
(lp6277
V\u948b
asV\u7058
(lp6278
V\u6f6c
aV\u6ee9
asV\U000283e5
(lp6279
V\U0002840a
asV\u7df1
(lp6280
V\u7f11
asV\u9f72
(lp6281
V\u9f8b
asV\u897e
(lp6282
V\u897f
asV\u5501
(lp6283
V\u55ad
asV\u9003
(lp6284
V\u8fef
aV\u8fef
asV\u5305
(lp6285
V\u52f9
asV\u9e07
(lp6286
V\u9e6f
asV\u7d86
(lp6287
V\u7ee0
asV\u5909
(lp6288
V\u8b8a
asV\u7a1f
(lp6289
V\u7980
aV\u7980
aV\u5eea
asV\u7ab4
(lp6290
V\u5861
asV\u8139
(lp6291
V\u75ee
aV\u80c0
asV\u6ebc
(lp6292
V\u6fd5
aV\u6fd5
asV\u97c2
(lp6293
V\u4a5e
asV\u7345
(lp6294
V\u72ee
asV\u52c4
(lp6295
V\u654f
asV\uf949
(lp6296
V\u96f7
asV\u58c8
(lp6297
V\U00021484
asV\u9bca
(lp6298
V\u9b66
aV\u9ca8
asV\u9657
(lp6299
V\u5ced
asV\u5f5d
(lp6300
V\u5f5b
asV\u9a5f
(lp6301
V\u9aa4
asV\uf9de
(lp6302
V\u540f
asV\u8e67
(lp6303
V\u906d
asV\u4969
(lp6304
V\U00028c56
asV\u9af4
(lp6305
V\u5f7f
asV\u80f8
(lp6306
V\u80f7
asV\u8efc
(lp6307
V\u8f76
asV\u9481
(lp6308
V\u9562
asV\u9285
(lp6309
V\u94dc
asV\uf908
(lp6310
V\u9f9c
asV\u670c
(lp6311
V\u9812
asV\u8a95
(lp6312
V\U00027a59
aV\u8bde
asV\u7099
(lp6313
V\uf9fb
asV\u5118
(lp6314
V\u5c3d
asV\u8622
(lp6315
V\u830f
asV\u62a5
(lp6316
V\u5831
asV\u95ab
(lp6317
V\u9603
asV\u8a2a
(lp6318
V\u8bbf
asV\u93af
(lp6319
V\U00028c4d
asV\u99b3
(lp6320
V\u9a70
asV\u7e32
(lp6321
V\u7f27
asV\u6436
(lp6322
V\u62a2
asV\u34c1
(lp6323
V\u7f51
asV\u5642
(lp6324
V\u8b50
asV\u9344
(lp6325
V\U00028c49
asV\u5c46
(lp6326
V\u5c4a
aV\u5c4a
asV\u9948
(lp6327
V\U000267e4
aV\u9990
asV\u69d3
(lp6328
V\u6760
asV\u5ddb
(lp6329
V\u5ddd
asV\u5bdf
(lp6330
V\u8a67
aV\u8a67
asV\u84e1
(lp6331
V\u53c3
asV\u6560
(lp6332
V\u656a
aV\u656a
asV\U00022662
(lp6333
V\u6050
asV\u82e5
(lp6334
V\uf974
asV\u6968
(lp6335
V\u6862
asV\u76ed
(lp6336
V\u76e9
asV\u5401
(lp6337
V\u7c72
asV\u7682
(lp6338
V\u7681
aV\u7681
asV\u5205
(lp6339
V\u5275
asV\u9f07
(lp6340
V\u9c32
asV\u8913
(lp6341
V\u7de5
aV\u8934
asV\U00027717
(lp6342
V\u461e
asV\u7d1b
(lp6343
V\u7eb7
asV\u529a
(lp6344
V\u3509
asV\u9f9c
(lp6345
V\u9f9f
asV\u552b
(lp6346
V\u541f
asV\u77ac
(lp6347
V\u4022
asV\u532f
(lp6348
V\u6ed9
aV\u6c47
asV\u9c31
(lp6349
V\u9ca2
asV\u7db0
(lp6350
V\u7efe
asV\u8e3d
(lp6351
V\u504a
asV\u55c0
(lp6352
V\ufa0d
asV\u53c4
(lp6353
V\u53c1
aV\u53c3
asV\u8ed2
(lp6354
V\u8f69
asV\U00020f2e
(lp6355
V\U00020c53
asV\u9b5f
(lp6356
V\u9c29
aV\U0002b689
asV\u756b
(lp6357
V\u753b
aV\u753b
asV\u6aea
(lp6358
V\u67a5
asV\u9df0
(lp6359
V\u71d5
asV\uf973
(lp6360
V\u5341
asV\u9bf4
(lp6361
V\u9cba
asV\u6777
(lp6362
V\u6733
asV\u6b7f
(lp6363
V\u6b81
aV\u6b81
asV\u5283
(lp6364
V\u5212
asV\U00021b89
(lp6365
V\U00021b5c
asV\u7a08
(lp6366
V\u79c6
aV\u79c6
asV\u7399
(lp6367
V\u74b5
asV\u5218
(lp6368
V\u5289
asV\u5c1c
(lp6369
V\u560e
asV\u8f26
(lp6370
V\u8f87
aV\uf998
asV\u55ad
(lp6371
V\u5501
asV\u732e
(lp6372
V\u737b
asV\u7d32
(lp6373
V\u7de4
aV\u7ec1
asV\u6736
(lp6374
V\u6735
aV\u6735
asV\u6b3e
(lp6375
V\u6b35
asV\u9640
(lp6376
V\u9641
asV\u7cc7
(lp6377
V\u9931
asV\u6ad3
(lp6378
V\u6a79
aV\uf931
asV\u4d52
(lp6379
V\u4d51
asV\u7258
(lp6380
V\u724d
asV\u7c5c
(lp6381
V\u7ba8
asV\u58df
(lp6382
V\u5784
aV\uf942
asV\u81e5
(lp6383
V\u5367
asV\u6064
(lp6384
V\u5379
aV\u8cc9
asV\u936e
(lp6385
V\U00028c4e
asV\u7ff1
(lp6386
V\u7ffa
aV\u7ffa
asV\u9d72
(lp6387
V\u9e4a
asV\uf9f5
(lp6388
V\u6dcb
asV\u8776
(lp6389
V\u8728
asV\u8b7e
(lp6390
V\u8c2b
aV\u8b2d
asV\u9203
(lp6391
V\u9498
asV\u7f86
(lp6392
V\u7f74
asV\u860b
(lp6393
V\u82f9
asV\uf98a
(lp6394
V\u529b
asV\u800f
(lp6395
V\u8010
asV\u8a13
(lp6396
V\u8bad
asV\u9298
(lp6397
V\u94ed
asV\u7e1b
(lp6398
V\u7f1a
asV\U00028e1a
(lp6399
V\u7d1a
asV\U000200a4
(lp6400
V\U00023ce8
asV\u8aa8
(lp6401
V\u8bf2
asV\u9935
(lp6402
V\u8ac9
asV\u56c0
(lp6403
V\u556d
asV\u7145
(lp6404
V\u935b
aV\u935b
asV\u7b49
(lp6405
V\u6729
asV\u654d
(lp6406
V\u53d9
asV\u6f51
(lp6407
V\u6cfc
aV\u6e8c
asV\u6955
(lp6408
V\u6a62
asV\u77d6
(lp6409
V\u77cb
asV\U000299c6
(lp6410
V\U00029a10
asV\u8263
(lp6411
V\u6ad3
asV\u65e2
(lp6412
V\u65e3
asV\u69ea
(lp6413
V\u3ba3
asV\u706f
(lp6414
V\u71c8
asV\u3975
(lp6415
V\u6141
asV\u98f4
(lp6416
V\u9974
asV\u6e7b
(lp6417
V\u6df3
asV\u8cfc
(lp6418
V\u8d2d
asV\u687f
(lp6419
V\u6746
asV\U00021681
(lp6420
V\u5f0a
asV\u9085
(lp6421
V\u38f6
asV\u5d87
(lp6422
V\u380a
aV\u5c96
asV\u380a
(lp6423
V\u5d87
asV\u848d
(lp6424
V\u853f
asV\u8e91
(lp6425
V\u8e2f
asV\u9616
(lp6426
V\u95a4
asV\u5318
(lp6427
V\u8166
asV\u97ab
(lp6428
V\u8aca
asV\u9bb3
(lp6429
V\u9c93
asV\u6636
(lp6430
V\u66a2
asV\u89bf
(lp6431
V\u89cc
asV\u9740
(lp6432
V\u6fdb
asV\u5442
(lp6433
V\u5415
aV\uf980
asV\u7dc7
(lp6434
V\u7f01
asV\u584a
(lp6435
V\u5757
aV\u51f7
asV\u6bd3
(lp6436
V\u80b2
aV\u80b2
asV\u92d9
(lp6437
V\u94fb
asV\U0002305a
(lp6438
V\U0002305f
asV\u6760
(lp6439
V\u69d3
aV\u69d3
asV\u6164
(lp6440
V\u6128
asV\u8ae9
(lp6441
V\u8b5c
asV\u7ef1
(lp6442
V\u7dd4
asV\u78f5
(lp6443
V\u6f97
asV\u8a7e
(lp6444
V\u8a29
asV\u5005
(lp6445
V\u4f1c
asV\u9d07
(lp6446
V\u9e28
asV\u870b
(lp6447
V\u8782
asV\u810f
(lp6448
V\u9ad2
asV\u6c92
(lp6449
V\u6ca1
asV\u9398
(lp6450
V\u9549
asV\u791f
(lp6451
V\u792e
asV\U000248aa
(lp6452
V\u7375
asV\u79b4
(lp6453
V\u793f
asV\u8239
(lp6454
V\u8221
aV\u8229
asV\u6dbc
(lp6455
V\u51c9
aV\u51c9
aV\uf979
asV\u57c0
(lp6456
V\u5782
asV\u51c4
(lp6457
V\u6dd2
aV\u6dd2
asV\u7a49
(lp6458
V\u7a1a
aV\u7a1a
asV\u82ce
(lp6459
V\u8499
asV\u8cd2
(lp6460
V\u8d4a
asV\u5259
(lp6461
V\u5275
asV\u995f
(lp6462
V\u9909
asV\u4661
(lp6463
V\u464c
asV\u8363
(lp6464
V\u69ae
asV\u776b
(lp6465
V\u4039
asV\U00029754
(lp6466
V\U0002980b
asV\u7e04
(lp6467
V\u7e69
asV\u5287
(lp6468
V\u5267
asV\u9589
(lp6469
V\u95ed
aV\u9587
asV\u8b8d
(lp6470
V\u8ae4
asV\u9916
(lp6471
V\u997e
asV\u7d99
(lp6472
V\u7e7c
asV\u9eaf
(lp6473
V\u9eb4
asV\u7d2e
(lp6474
V\u624e
asV\u51b1
(lp6475
V\u6c8d
aV\u6c8d
asV\u94b3
(lp6476
V\u7b9d
asV\u57b5
(lp6477
V\u57ef
asV\u6936
(lp6478
V\u68d5
aV\u68d5
asV\u80bb
(lp6479
V\u80af
asV\u64d3
(lp6480
V\u39df
asV\u8654
(lp6481
V\u458d
asV\u5ad7
(lp6482
V\u59aa
asV\u9dd9
(lp6483
V\u9e37
asV\u7c58
(lp6484
V\u7c50
asV\u93dd
(lp6485
V\u9558
asV\u725c
(lp6486
V\u725b
asV\u355e
(lp6487
V\u5237
asV\u8fe5
(lp6488
V\u9008
asV\u7bed
(lp6489
V\u7c60
asV\u5a6c
(lp6490
V\u6deb
aV\u6deb
asV\u9d6e
(lp6491
V\u9e50
asV\u5674
(lp6492
V\u55b7
asV\u6df9
(lp6493
V\u6e30
asV\u9c03
(lp6494
V\u9cc2
asV\u9207
(lp6495
V\U0002b4e7
asV\u5509
(lp6496
V\u6b38
aV\u8a92
asV\u8e0f
(lp6497
V\u8e4b
asV\u6d8e
(lp6498
V\u3cc4
asV\ufa17
(lp6499
V\u76ca
aV\u76ca
asV\u929c
(lp6500
V\u3605
aV\u8854
asV\u559e
(lp6501
V\u5527
asV\u88a0
(lp6502
V\u5e19
asV\u6c23
(lp6503
V\u7081
aV\u6c14
aV\u6c17
asV\u6227
(lp6504
V\u5275
aV\u6217
asV\u9b2d
(lp6505
V\u9b25
aV\u9b25
asV\u5e2f
(lp6506
V\u5e36
asV\u70b0
(lp6507
V\u70ae
aV\u70ae
asV\u5433
(lp6508
V\u5449
aV\u5434
aV\u5449
asV\U00029735
(lp6509
V\U0002980a
asV\u6cb8
(lp6510
V\u3d52
asV\uf941
(lp6511
V\u8ad6
asV\u7f45
(lp6512
V\U00028ef2
asV\u5ec4
(lp6513
V\u53a9
aV\u5ed0
asV\u91c6
(lp6514
V\u91c7
asV\u9a57
(lp6515
V\u9a10
aV\u9a8c
asV\uf9d6
(lp6516
V\u6dea
asV\u7fda
(lp6517
V\u7fec
asV\u8c63
(lp6518
V\u8c5c
aV\u8c5c
asV\u786b
(lp6519
V\uf9ce
asV\u7e6f
(lp6520
V\u7f33
asV\u90f0
(lp6521
V\u9139
asV\u8cf8
(lp6522
V\u5269
aV\u5269
asV\uf900
(lp6523
V\u8c48
asV\u5d83
(lp6524
V\u78db
asV\u8a8d
(lp6525
V\u8ba4
asV\U00029b59
(lp6526
V\U00029b23
asV\u8695
(lp6527
V\u8836
asV\u5d18
(lp6528
V\u5d19
aV\u5d19
asV\u9e1a
(lp6529
V\u9e66
asV\U00022da3
(lp6530
V\u3a79
asV\u8a22
(lp6531
V\u4723
asV\u9faf
(lp6532
V\U00028c46
asV\u7232
(lp6533
V\u70ba
aV\u70ba
asV\u56b5
(lp6534
V\u995e
asV\u87bf
(lp6535
V\u8780
asV\u69cb
(lp6536
V\u6784
asV\u8b4c
(lp6537
V\u8a1b
aV\u8a1b
asV\u5bd7
(lp6538
V\u752f
asV\u51db
(lp6539
V\u61d4
asV\u92dd
(lp6540
V\u950a
asV\u57df
(lp6541
V\u3f63
asV\u88e1
(lp6542
V\u88cf
aV\u91cc
asV\u6960
(lp6543
V\u678f
asV\u6f64
(lp6544
V\u6da6
asV\u9c6e
(lp6545
V\U0002b688
asV\u70f1
(lp6546
V\u70af
aV\u70af
asV\u35f3
(lp6547
V\u55d2
asV\u8e7a
(lp6548
V\u8e7b
aV\u8df7
asV\u9d03
(lp6549
V\u9d59
aV\U0002b6de
asV\u9307
(lp6550
V\u952b
asV\u3588
(lp6551
V\u439b
asV\u5896
(lp6552
V\u5854
aV\u5854
asV\u9d98
(lp6553
V\u9e55
asV\u771f
(lp6554
V\u771e
aV\u771e
asV\u9a2d
(lp6555
V\u96b2
aV\u9a98
asV\u7bac
(lp6556
V\u7bdb
asV\u9031
(lp6557
V\u5468
asV\u6db8
(lp6558
V\u51c5
asV\u7e45
(lp6559
V\u7e70
aV\u7f2b
asV\u5fc4
(lp6560
V\u5fc3
asV\u4bcc
(lp6561
V\u5c3b
asV\u525d
(lp6562
V\u5265
asV\uf96b
(lp6563
V\u53c3
asV\u7573
(lp6564
V\u758a
asV\u52f2
(lp6565
V\u52db
asV\u6b77
(lp6566
V\u5386
asV\u677f
(lp6567
V\u7248
asV\u9b81
(lp6568
V\u9c85
asV\u7a00
(lp6569
V\u5e0c
asV\u5e83
(lp6570
V\u5ee3
asV\u6414
(lp6571
V\u63bb
asV\u7f99
(lp6572
V\u7f8e
asV\uf904
(lp6573
V\u6ed1
asV\u8922
(lp6574
V\u8931
asV\u67a9
(lp6575
V\u677e
asV\u9aab
(lp6576
V\u9aaa
asV\u3434
(lp6577
V\u6500
asV\u88b7
(lp6578
V\u88cc
asV\u6b36
(lp6579
V\U00020cbf
asV\u82bb
(lp6580
V\u520d
asV\u9a40
(lp6581
V\u84e6
asV\u5346
(lp6582
V\u5352
asV\U00029648
(lp6583
V\U00029670
asV\u884c
(lp6584
V\ufa08
asV\u4f4e
(lp6585
V\u4efe
asV\u52db
(lp6586
V\u52f3
aV\u52cb
aV\u52f2
asV\u91dd
(lp6587
V\u9488
asV\u8de5
(lp6588
V\u8dfa
aV\u8dfa
asV\uf9ed
(lp6589
V\u541d
asV\u5270
(lp6590
V\u5269
asV\u61fd
(lp6591
V\u6b61
asV\U00029e03
(lp6592
V\U00029f85
asV\u7982
(lp6593
V\u79b1
asV\u7386
(lp6594
V\u8332
asV\u758a
(lp6595
V\u53e0
asV\u490d
(lp6596
V\U000288a5
asV\u8613
(lp6597
V\u8607
asV\u6192
(lp6598
V\u6126
asV\U0002f817
(lp6599
V\u5197
asV\u721b
(lp6600
V\u70c2
asV\u8aa0
(lp6601
V\u8bda
asV\u992d
(lp6602
V\U0002b5ee
asV\u7d45
(lp6603
V\u8927
aV\u4339
asV\u93c6
(lp6604
V\U00028c4c
asV\u56c8
(lp6605
V\u5453
asV\u95ca
(lp6606
V\u6ff6
aV\u9614
asV\u5f59
(lp6607
V\u6c47
aV\u5f5a
asV\u925b
(lp6608
V\u9206
aV\u94c5
asV\u7dda
(lp6609
V\u7dab
aV\u7ebf
asV\u8e63
(lp6610
V\u8e52
asV\u63e6
(lp6611
V\u650b
asV\u7a6b
(lp6612
V\u6ab4
aV\u83b7
asV\u65ea
(lp6613
V\u5354
asV\u92f0
(lp6614
V\u9502
asV\u8ef8
(lp6615
V\u8f74
asV\u80fc
(lp6616
V\u8141
asV\u5f83
(lp6617
V\u5f80
aV\u5f80
asV\u7d04
(lp6618
V\u7ea6
asV\u9689
(lp6619
V\u9667
asV\u7708
(lp6620
V\u8ead
asV\u4d8f
(lp6621
V\u6d95
asV\u4793
(lp6622
V\u8d6c
asV\u6514
(lp6623
V\u62e6
asV\u9a16
(lp6624
V\u9a9b
asV\u8822
(lp6625
V\u60f7
asV\u8226
(lp6626
V\u825c
asV\u9bab
(lp6627
V\u9c9b
asV\u9daf
(lp6628
V\u9e0e
aV\u83ba
asV\u7e2e
(lp6629
V\u7f29
asV\u7032
(lp6630
V\u6f4b
asV\u89b7
(lp6631
V\u89b0
aV\u89d1
asV\u9748
(lp6632
V\u7075
aV\u7075
aV\uf9b3
asV\u544a
(lp6633
V\u543f
aV\u543f
asV\u8350
(lp6634
V\u85a6
asV\u59d7
(lp6635
V\u59cd
asV\u9ed9
(lp6636
V\u9ed8
aV\u9ed8
asV\u7f58
(lp6637
V\u7f66
asV\u8ae1
(lp6638
V\u8b1a
asV\u9072
(lp6639
V\u8fdf
aV\u9045
asV\u8a76
(lp6640
V\u916c
asV\u8c7a
(lp6641
V\u72b2
aV\u72b2
asV\u60fd
(lp6642
V\u60db
asV\u9f03
(lp6643
V\u86d9
asV\u5c05
(lp6644
V\u524b
aV\u524b
asV\u8d0f
(lp6645
V\u8d62
asV\uf917
(lp6646
V\u73de
asV\u919c
(lp6647
V\u4e11
asV\u8ba0
(lp6648
V\u8a00
asV\u6f23
(lp6649
V\u6d9f
asV\u6127
(lp6650
V\u5abf
aV\u5abf
asV\u982d
(lp6651
V\u5934
asV\uf9ac
(lp6652
V\u601c
asV\u9435
(lp6653
V\u94c1
asV\u75b4
(lp6654
V\u75fe
asV\u8e39
(lp6655
V\u8df4
asV\u803d
(lp6656
V\u8ead
asV\u7649
(lp6657
V\u75b8
aV\u7605
asV\u6251
(lp6658
V\u64b2
asV\u9957
(lp6659
V\u98e8
asV\u7ad6
(lp6660
V\u8c4e
asV\u5e59
(lp6661
V\u5e55
asV\u935b
(lp6662
V\u7145
aV\u953b
aV\u7145
asV\u76de
(lp6663
V\u76cf
asV\u8f63
(lp6664
V\U0002b406
asV\u93f0
(lp6665
V\u6586
aV\u955a
asV\U00028452
(lp6666
V\u5f92
asV\u637b
(lp6667
V\uf9a4
asV\u657f
(lp6668
V\u657d
asV\u7c00
(lp6669
V\u7ba6
asV\ufa04
(lp6670
V\u5b85
asV\u5687
(lp6671
V\u5413
asV\u9189
(lp6672
V\u9154
asV\u4a8f
(lp6673
V\U000293fc
asV\u8591
(lp6674
V\u8441
aV\u59dc
asV\u8395
(lp6675
V\u8347
asV\u6214
(lp6676
V\u620b
asV\uf999
(lp6677
V\u84ee
asV\u5818
(lp6678
V\u584d
asV\u9b1a
(lp6679
V\u987b
asV\u561c
(lp6680
V\u551b
asV\u8526
(lp6681
V\u8311
asV\u61a9
(lp6682
V\u6187
aV\u6187
asV\u5fad
(lp6683
V\u509c
asV\u9aaf
(lp6684
V\u80ae
asV\u792e
(lp6685
V\u70ae
asV\u53b5
(lp6686
V\u6e90
asV\u8eb7
(lp6687
V\u77ee
asV\u6d36
(lp6688
V\u6c79
asV\u613e
(lp6689
V\u5ffe
asV\u5f42
(lp6690
V\u767c
asV\u9a44
(lp6691
V\u9a18
aV\u9aa2
asV\u76c7
(lp6692
V\u76cd
aV\u76cd
asV\u8e4c
(lp6693
V\u7244
aV\u8dc4
asV\u99d9
(lp6694
V\u9a78
asV\u97dd
(lp6695
V\u97b2
asV\U000252df
(lp6696
V\u4080
asV\u8de1
(lp6697
V\u8ff9
asV\u5e6c
(lp6698
V\u5e31
asV\u996e
(lp6699
V\u98ee
asV\u5274
(lp6700
V\u5240
asV\u8d76
(lp6701
V\u8d95
asV\u69f9
(lp6702
V\U000234cc
asV\U0002a2ff
(lp6703
V\U0002a38d
asV\u9803
(lp6704
V\u9877
asV\u7f82
(lp6705
V\u7f65
asV\u7586
(lp6706
V\u757a
asV\u5109
(lp6707
V\u4fed
asV\u4f0d
(lp6708
V\u4e94
asV\u698e
(lp6709
V\u6a9f
asV\u7e17
(lp6710
V\u7f1e
asV\u8ca0
(lp6711
V\u8d1f
asV\u8aa4
(lp6712
V\u609e
aV\u8bef
asV\u80a8
(lp6713
V\u80ee
asV\u5c2b
(lp6714
V\u5c2a
asV\u5a2f
(lp6715
V\u5a1b
asV\u74b0
(lp6716
V\u73af
asV\u72b4
(lp6717
V\u8c7b
asV\u5cc0
(lp6718
V\u5cab
asV\u95c6
(lp6719
V\u677f
asV\u7149
(lp6720
V\u70bc
aV\uf993
asV\u87d2
(lp6721
V\u880e
asV\u7dd6
(lp6722
V\u7dd2
asV\u945b
(lp6723
V\u7926
aV\u7926
asV\u8863
(lp6724
V\u8864
asV\u8667
(lp6725
V\u4e8f
asV\u65e6
(lp6726
V\u86cb
asV\u63ea
(lp6727
V\u63eb
asV\u88f8
(lp6728
V\u8eb6
aV\uf912
asV\u647b
(lp6729
V\u63ba
asV\u7d00
(lp6730
V\u7eaa
asV\u9089
(lp6731
V\u908a
asV\u8e8d
(lp6732
V\u8daf
aV\u8dc3
asV\u7899
(lp6733
V\U0002543b
asV\u5918
(lp6734
V\u536f
asV\u9a1a
(lp6735
V\U00029a0a
asV\u54b1
(lp6736
V\u507a
asV\u7632
(lp6737
V\u75ad
asV\u52b5
(lp6738
V\u5238
asV\u6a3a
(lp6739
V\u6866
asV\u83bf
(lp6740
V\u673f
asV\u79c3
(lp6741
V\u79bf
asV\u5e42
(lp6742
V\u9f0f
asV\u77c7
(lp6743
V\u8499
asV\u5446
(lp6744
V\u7343
aV\u9a03
asV\u9148
(lp6745
V\u90e6
asV\u6dcb
(lp6746
V\uf9f5
asV\u6bcf
(lp6747
V\u6bce
asV\u8354
(lp6748
V\u681b
asV\u5fd7
(lp6749
V\u5fd7
aV\u8a8c
asV\u7958
(lp6750
V\u7b97
asV\u96dd
(lp6751
V\u7c0c
asV\u775c
(lp6752
V\u7741
asV\u53df
(lp6753
V\u53dc
asV\u8ce1
(lp6754
V\u8d53
asV\u5f6c
(lp6755
V\u658c
aV\u4efd
asV\u5570
(lp6756
V\u56c9
asV\u72f5
(lp6757
V\u5c28
asV\u5374
(lp6758
V\u537b
asV\u8c76
(lp6759
V\u8c6e
asV\u68f9
(lp6760
V\u684c
asV\u66fd
(lp6761
V\u66fe
asV\u477c
(lp6762
V\u478d
asV\u807e
(lp6763
V\u804b
aV\uf945
asV\u9903
(lp6764
V\u997a
asV\U00029707
(lp6765
V\U00029809
asV\u5009
(lp6766
V\u4ed3
asV\u4e0d
(lp6767
V\uf967
asV\u8b0f
(lp6768
V\U0002b372
asV\u9998
(lp6769
V\u805d
asV\u731f
(lp6770
V\u7375
asV\u6727
(lp6771
V\u80e7
asV\u8839
(lp6772
V\u8827
asV\u863d
(lp6773
V\u85df
asV\uf93c
(lp6774
V\u797f
asV\u7a45
(lp6775
V\u7ce0
aV\u7ce0
asV\u51c8
(lp6776
V\u6de8
aV\u51c0
asV\u6451
(lp6777
V\u63b4
asV\u6255
(lp6778
V\u62c2
asV\u9f57
(lp6779
V\u9f82
asV\u7cd6
(lp6780
V\u9939
aV\ufa03
asV\u7ada
(lp6781
V\u4f47
asV\u565d
(lp6782
V\u549d
asV\u7b6f
(lp6783
V\u7bb8
asV\u7173
(lp6784
V\u3dfb
asV\u56f2
(lp6785
V\u570d
asV\u6f77
(lp6786
V\u6ed7
asV\u89f8
(lp6787
V\u89e6
asV\u657b
(lp6788
V\u5910
asV\u4e8b
(lp6789
V\u4e8a
aV\u4e8a
asV\u6c0c
(lp6790
V\u6c07
asV\u8195
(lp6791
V\u8158
aV\u8158
asV\u5a18
(lp6792
V\u5b43
aV\u5b43
asV\u991a
(lp6793
V\u80b4
aV\u80b4
asV\u63a9
(lp6794
V\u63dc
asV\u9eab
(lp6795
V\u9eb5
asV\u812a
(lp6796
V\u3f99
asV\u98af
(lp6797
V\u98d2
asV\u92b3
(lp6798
V\u9510
aV\u92ed
asV\u51b5
(lp6799
V\u6cc1
asV\u8cb7
(lp6800
V\u4e70
asV\u633e
(lp6801
V\u631f
asV\u7ac3
(lp6802
V\u7076
asV\u5746
(lp6803
V\u58b3
asV\u9248
(lp6804
V\u94ca
asV\u8650
(lp6805
V\u4588
aV\u4e47
asV\u62d3
(lp6806
V\u6258
aV\ufa02
asV\u56db
(lp6807
V\u8086
asV\u89e5
(lp6808
V\u89f5
asV\u5c6c
(lp6809
V\u5c5e
asV\u5074
(lp6810
V\u4fa7
asV\u5f01
(lp6811
V\u8fa8
asV\u9a03
(lp6812
V\U0002b624
aV\u5446
asV\u7d82
(lp6813
V\u7d71
asV\u5905
(lp6814
V\u964d
asV\u880f
(lp6815
V\u87f9
aV\u87f9
asV\u8213
(lp6816
V\u8210
asV\u949c
(lp6817
V\u5de8
asV\u701f
(lp6818
V\u6f47
asV\u6a23
(lp6819
V\u6837
aV\u69d8
asV\u6427
(lp6820
V\u717d
asV\u5e2b
(lp6821
V\u5e08
asV\U000296c6
(lp6822
V\U00029802
asV\u582f
(lp6823
V\u5c27
asV\U00021731
(lp6824
V\u5ac9
asV\u76b0
(lp6825
V\u75b1
aV\u75b1
asV\u8b39
(lp6826
V\u8c28
asV\u6ab8
(lp6827
V\u67e0
asV\u853d
(lp6828
V\u8298
asV\u5ec0
(lp6829
V\u5ecb
asV\u9dc2
(lp6830
V\u9e5e
asV\uf945
(lp6831
V\u807e
asV\u6751
(lp6832
V\u90a8
asV\U00027ff9
(lp6833
V\u62c7
asV\u9c57
(lp6834
V\u9cde
aV\uf9f2
asV\uf9da
(lp6835
V\u6817
asV\u905f
(lp6836
V\u9072
asV\u73de
(lp6837
V\uf917
asV\u8a63
(lp6838
V\u8be3
asV\u7e6b
(lp6839
V\u7cfb
aV\u7e4b
asV\u786f
(lp6840
V\u781a
asV\u5bee
(lp6841
V\uf9bc
asV\u8af8
(lp6842
V\u8bf8
asV\u84fc
(lp6843
V\uf9c2
asV\u607f
(lp6844
V\u6142
aV\u6142
asV\u9e81
(lp6845
V\u7c97
asV\u5b83
(lp6846
V\u7260
asV\u7904
(lp6847
V\u785a
aV\u785a
asV\u5587
(lp6848
V\uf90b
asV\u8c8d
(lp6849
V\u72f8
asV\u6d0c
(lp6850
V\u51bd
asV\u6710
(lp6851
V\u80ca
asV\u8095
(lp6852
V\u97cc
asV\u981a
(lp6853
V\u9838
asV\u921e
(lp6854
V\u9281
aV\u94a7
asV\u5cad
(lp6855
V\u5cba
asV\u7a2e
(lp6856
V\u79cd
asV\u93b3
(lp6857
V\u954d
asV\u50b5
(lp6858
V\u503a
asV\u87bb
(lp6859
V\u877c
asV\u81bf
(lp6860
V\u8113
asV\u623e
(lp6861
V\u623b
asV\U00029944
(lp6862
V\U00029a0b
asV\u9348
(lp6863
V\u9533
asV\u504a
(lp6864
V\u8e3d
asV\u9ad9
(lp6865
V\u9ad8
aV\u9ad8
asV\U0002325e
(lp6866
V\u66a0
asV\u6368
(lp6867
V\u820d
asV\u7ced
(lp6868
V\u7cc9
asV\u9472
(lp6869
V\u9576
asV\u64fd
(lp6870
V\u39f0
asV\u9b03
(lp6871
V\u9a94
asV\u5805
(lp6872
V\u575a
asV\u890f
(lp6873
V\u890e
asV\u4611
(lp6874
V\u8109
asV\u7d17
(lp6875
V\u7eb1
asV\u529e
(lp6876
V\u8fa6
asV\u8fa0
(lp6877
V\u7f6a
aV\u7f6a
asV\u6b23
(lp6878
V\u5ffb
aV\u5ffb
asV\u9c2d
(lp6879
V\u9ccd
asV\u7dac
(lp6880
V\u7ef6
asV\u592f
(lp6881
V\u40ab
asV\u9631
(lp6882
V\u7a7d
aV\u7a7d
asV\u77b0
(lp6883
V\u77d9
asV\u5333
(lp6884
V\u5969
aV\u5969
asV\u34b2
(lp6885
V\u8ca1
asV\u843d
(lp6886
V\uf918
asV\u65bc
(lp6887
V\u4e8e
asV\u7e41
(lp6888
V\u7dd0
asV\u96c6
(lp6889
V\u4ebc
asV\u78da
(lp6890
V\u750e
aV\u7816
asV\U00028cd1
(lp6891
V\U00028e01
asV\u60ea
(lp6892
V\u5fb7
aV\u5fb7
asV\uf96f
(lp6893
V\u8aaa
asV\u8bf8
(lp6894
V\ufa22
as.